
./bufbomb:     file format elf32-i386


Disassembly of section .init:

08049000 <_init>:
 8049000:	f3 0f 1e fb          	endbr32 
 8049004:	53                   	push   %ebx
 8049005:	83 ec 08             	sub    $0x8,%esp
 8049008:	e8 03 05 00 00       	call   8049510 <__x86.get_pc_thunk.bx>
 804900d:	81 c3 f3 4f 00 00    	add    $0x4ff3,%ebx
 8049013:	8b 83 f4 ff ff ff    	mov    -0xc(%ebx),%eax
 8049019:	85 c0                	test   %eax,%eax
 804901b:	74 02                	je     804901f <_init+0x1f>
 804901d:	ff d0                	call   *%eax
 804901f:	83 c4 08             	add    $0x8,%esp
 8049022:	5b                   	pop    %ebx
 8049023:	c3                   	ret    

Disassembly of section .text:

080494c0 <_start>:
 80494c0:	f3 0f 1e fb          	endbr32 
 80494c4:	31 ed                	xor    %ebp,%ebp
 80494c6:	5e                   	pop    %esi
 80494c7:	89 e1                	mov    %esp,%ecx
 80494c9:	83 e4 f0             	and    $0xfffffff0,%esp
 80494cc:	50                   	push   %eax
 80494cd:	54                   	push   %esp
 80494ce:	52                   	push   %edx
 80494cf:	e8 23 00 00 00       	call   80494f7 <_start+0x37>
 80494d4:	81 c3 2c 4b 00 00    	add    $0x4b2c,%ebx
 80494da:	8d 83 70 d3 ff ff    	lea    -0x2c90(%ebx),%eax
 80494e0:	50                   	push   %eax
 80494e1:	8d 83 00 d3 ff ff    	lea    -0x2d00(%ebx),%eax
 80494e7:	50                   	push   %eax
 80494e8:	51                   	push   %ecx
 80494e9:	56                   	push   %esi
 80494ea:	c7 c0 ad 9d 04 08    	mov    $0x8049dad,%eax
 80494f0:	50                   	push   %eax
 80494f1:	e8 ca fe ff ff       	call   80493c0 <__libc_start_main@plt>
 80494f6:	f4                   	hlt    
 80494f7:	8b 1c 24             	mov    (%esp),%ebx
 80494fa:	c3                   	ret    
 80494fb:	66 90                	xchg   %ax,%ax
 80494fd:	66 90                	xchg   %ax,%ax
 80494ff:	90                   	nop

08049500 <_dl_relocate_static_pie>:
 8049500:	f3 0f 1e fb          	endbr32 
 8049504:	c3                   	ret    
 8049505:	66 90                	xchg   %ax,%ax
 8049507:	66 90                	xchg   %ax,%ax
 8049509:	66 90                	xchg   %ax,%ax
 804950b:	66 90                	xchg   %ax,%ax
 804950d:	66 90                	xchg   %ax,%ax
 804950f:	90                   	nop

08049510 <__x86.get_pc_thunk.bx>:
 8049510:	8b 1c 24             	mov    (%esp),%ebx
 8049513:	c3                   	ret    
 8049514:	66 90                	xchg   %ax,%ax
 8049516:	66 90                	xchg   %ax,%ax
 8049518:	66 90                	xchg   %ax,%ax
 804951a:	66 90                	xchg   %ax,%ax
 804951c:	66 90                	xchg   %ax,%ax
 804951e:	66 90                	xchg   %ax,%ax

08049520 <deregister_tm_clones>:
 8049520:	b8 cc e0 04 08       	mov    $0x804e0cc,%eax
 8049525:	3d cc e0 04 08       	cmp    $0x804e0cc,%eax
 804952a:	74 24                	je     8049550 <deregister_tm_clones+0x30>
 804952c:	b8 00 00 00 00       	mov    $0x0,%eax
 8049531:	85 c0                	test   %eax,%eax
 8049533:	74 1b                	je     8049550 <deregister_tm_clones+0x30>
 8049535:	55                   	push   %ebp
 8049536:	89 e5                	mov    %esp,%ebp
 8049538:	83 ec 14             	sub    $0x14,%esp
 804953b:	68 cc e0 04 08       	push   $0x804e0cc
 8049540:	ff d0                	call   *%eax
 8049542:	83 c4 10             	add    $0x10,%esp
 8049545:	c9                   	leave  
 8049546:	c3                   	ret    
 8049547:	8d b4 26 00 00 00 00 	lea    0x0(%esi,%eiz,1),%esi
 804954e:	66 90                	xchg   %ax,%ax
 8049550:	c3                   	ret    
 8049551:	8d b4 26 00 00 00 00 	lea    0x0(%esi,%eiz,1),%esi
 8049558:	8d b4 26 00 00 00 00 	lea    0x0(%esi,%eiz,1),%esi
 804955f:	90                   	nop

08049560 <register_tm_clones>:
 8049560:	b8 cc e0 04 08       	mov    $0x804e0cc,%eax
 8049565:	2d cc e0 04 08       	sub    $0x804e0cc,%eax
 804956a:	89 c2                	mov    %eax,%edx
 804956c:	c1 e8 1f             	shr    $0x1f,%eax
 804956f:	c1 fa 02             	sar    $0x2,%edx
 8049572:	01 d0                	add    %edx,%eax
 8049574:	d1 f8                	sar    %eax
 8049576:	74 20                	je     8049598 <register_tm_clones+0x38>
 8049578:	ba 00 00 00 00       	mov    $0x0,%edx
 804957d:	85 d2                	test   %edx,%edx
 804957f:	74 17                	je     8049598 <register_tm_clones+0x38>
 8049581:	55                   	push   %ebp
 8049582:	89 e5                	mov    %esp,%ebp
 8049584:	83 ec 10             	sub    $0x10,%esp
 8049587:	50                   	push   %eax
 8049588:	68 cc e0 04 08       	push   $0x804e0cc
 804958d:	ff d2                	call   *%edx
 804958f:	83 c4 10             	add    $0x10,%esp
 8049592:	c9                   	leave  
 8049593:	c3                   	ret    
 8049594:	8d 74 26 00          	lea    0x0(%esi,%eiz,1),%esi
 8049598:	c3                   	ret    
 8049599:	8d b4 26 00 00 00 00 	lea    0x0(%esi,%eiz,1),%esi

080495a0 <__do_global_dtors_aux>:
 80495a0:	f3 0f 1e fb          	endbr32 
 80495a4:	80 3d e0 e0 04 08 00 	cmpb   $0x0,0x804e0e0
 80495ab:	75 1b                	jne    80495c8 <__do_global_dtors_aux+0x28>
 80495ad:	55                   	push   %ebp
 80495ae:	89 e5                	mov    %esp,%ebp
 80495b0:	83 ec 08             	sub    $0x8,%esp
 80495b3:	e8 68 ff ff ff       	call   8049520 <deregister_tm_clones>
 80495b8:	c6 05 e0 e0 04 08 01 	movb   $0x1,0x804e0e0
 80495bf:	c9                   	leave  
 80495c0:	c3                   	ret    
 80495c1:	8d b4 26 00 00 00 00 	lea    0x0(%esi,%eiz,1),%esi
 80495c8:	c3                   	ret    
 80495c9:	8d b4 26 00 00 00 00 	lea    0x0(%esi,%eiz,1),%esi

080495d0 <frame_dummy>:
 80495d0:	f3 0f 1e fb          	endbr32 
 80495d4:	eb 8a                	jmp    8049560 <register_tm_clones>

080495d6 <smoke>:
 80495d6:	f3 0f 1e fb          	endbr32 
 80495da:	55                   	push   %ebp
 80495db:	89 e5                	mov    %esp,%ebp
 80495dd:	53                   	push   %ebx
 80495de:	83 ec 04             	sub    $0x4,%esp
 80495e1:	e8 2a ff ff ff       	call   8049510 <__x86.get_pc_thunk.bx>
 80495e6:	81 c3 1a 4a 00 00    	add    $0x4a1a,%ebx
 80495ec:	83 ec 0c             	sub    $0xc,%esp
 80495ef:	8d 83 08 e0 ff ff    	lea    -0x1ff8(%ebx),%eax
 80495f5:	50                   	push   %eax
 80495f6:	e8 75 fd ff ff       	call   8049370 <puts@plt>
 80495fb:	83 c4 10             	add    $0x10,%esp
 80495fe:	83 ec 0c             	sub    $0xc,%esp
 8049601:	6a 00                	push   $0x0
 8049603:	e8 06 0c 00 00       	call   804a20e <validate>
 8049608:	83 c4 10             	add    $0x10,%esp
 804960b:	83 ec 0c             	sub    $0xc,%esp
 804960e:	6a 00                	push   $0x0
 8049610:	e8 6b fd ff ff       	call   8049380 <exit@plt>

08049615 <fizz>:
 8049615:	f3 0f 1e fb          	endbr32 
 8049619:	55                   	push   %ebp
 804961a:	89 e5                	mov    %esp,%ebp
 804961c:	53                   	push   %ebx
 804961d:	83 ec 04             	sub    $0x4,%esp
 8049620:	e8 eb fe ff ff       	call   8049510 <__x86.get_pc_thunk.bx>
 8049625:	81 c3 db 49 00 00    	add    $0x49db,%ebx
 804962b:	8b 55 08             	mov    0x8(%ebp),%edx
 804962e:	8b 83 10 01 00 00    	mov    0x110(%ebx),%eax
 8049634:	39 c2                	cmp    %eax,%edx
 8049636:	75 24                	jne    804965c <fizz+0x47>
 8049638:	83 ec 08             	sub    $0x8,%esp
 804963b:	ff 75 08             	pushl  0x8(%ebp)
 804963e:	8d 83 23 e0 ff ff    	lea    -0x1fdd(%ebx),%eax
 8049644:	50                   	push   %eax
 8049645:	e8 66 fc ff ff       	call   80492b0 <printf@plt>
 804964a:	83 c4 10             	add    $0x10,%esp
 804964d:	83 ec 0c             	sub    $0xc,%esp
 8049650:	6a 01                	push   $0x1
 8049652:	e8 b7 0b 00 00       	call   804a20e <validate>
 8049657:	83 c4 10             	add    $0x10,%esp
 804965a:	eb 15                	jmp    8049671 <fizz+0x5c>
 804965c:	83 ec 08             	sub    $0x8,%esp
 804965f:	ff 75 08             	pushl  0x8(%ebp)
 8049662:	8d 83 44 e0 ff ff    	lea    -0x1fbc(%ebx),%eax
 8049668:	50                   	push   %eax
 8049669:	e8 42 fc ff ff       	call   80492b0 <printf@plt>
 804966e:	83 c4 10             	add    $0x10,%esp
 8049671:	83 ec 0c             	sub    $0xc,%esp
 8049674:	6a 00                	push   $0x0
 8049676:	e8 05 fd ff ff       	call   8049380 <exit@plt>

0804967b <bang>:
 804967b:	f3 0f 1e fb          	endbr32 
 804967f:	55                   	push   %ebp
 8049680:	89 e5                	mov    %esp,%ebp
 8049682:	53                   	push   %ebx
 8049683:	83 ec 04             	sub    $0x4,%esp
 8049686:	e8 85 fe ff ff       	call   8049510 <__x86.get_pc_thunk.bx>
 804968b:	81 c3 75 49 00 00    	add    $0x4975,%ebx
 8049691:	8b 83 48 01 00 00    	mov    0x148(%ebx),%eax
 8049697:	89 c2                	mov    %eax,%edx
 8049699:	8b 83 10 01 00 00    	mov    0x110(%ebx),%eax
 804969f:	39 c2                	cmp    %eax,%edx
 80496a1:	75 28                	jne    80496cb <bang+0x50>
 80496a3:	8b 83 48 01 00 00    	mov    0x148(%ebx),%eax
 80496a9:	83 ec 08             	sub    $0x8,%esp
 80496ac:	50                   	push   %eax
 80496ad:	8d 83 64 e0 ff ff    	lea    -0x1f9c(%ebx),%eax
 80496b3:	50                   	push   %eax
 80496b4:	e8 f7 fb ff ff       	call   80492b0 <printf@plt>
 80496b9:	83 c4 10             	add    $0x10,%esp
 80496bc:	83 ec 0c             	sub    $0xc,%esp
 80496bf:	6a 02                	push   $0x2
 80496c1:	e8 48 0b 00 00       	call   804a20e <validate>
 80496c6:	83 c4 10             	add    $0x10,%esp
 80496c9:	eb 19                	jmp    80496e4 <bang+0x69>
 80496cb:	8b 83 48 01 00 00    	mov    0x148(%ebx),%eax
 80496d1:	83 ec 08             	sub    $0x8,%esp
 80496d4:	50                   	push   %eax
 80496d5:	8d 83 89 e0 ff ff    	lea    -0x1f77(%ebx),%eax
 80496db:	50                   	push   %eax
 80496dc:	e8 cf fb ff ff       	call   80492b0 <printf@plt>
 80496e1:	83 c4 10             	add    $0x10,%esp
 80496e4:	83 ec 0c             	sub    $0xc,%esp
 80496e7:	6a 00                	push   $0x0
 80496e9:	e8 92 fc ff ff       	call   8049380 <exit@plt>

080496ee <test>:
 80496ee:	f3 0f 1e fb          	endbr32 
 80496f2:	55                   	push   %ebp
 80496f3:	89 e5                	mov    %esp,%ebp
 80496f5:	53                   	push   %ebx
 80496f6:	83 ec 14             	sub    $0x14,%esp
 80496f9:	e8 12 fe ff ff       	call   8049510 <__x86.get_pc_thunk.bx>
 80496fe:	81 c3 02 49 00 00    	add    $0x4902,%ebx
 8049704:	e8 73 06 00 00       	call   8049d7c <uniqueval>
 8049709:	89 45 f0             	mov    %eax,-0x10(%ebp)
 804970c:	e8 32 09 00 00       	call   804a043 <getbuf>
 8049711:	89 45 f4             	mov    %eax,-0xc(%ebp)
 8049714:	e8 63 06 00 00       	call   8049d7c <uniqueval>
 8049719:	8b 55 f0             	mov    -0x10(%ebp),%edx
 804971c:	39 d0                	cmp    %edx,%eax
 804971e:	74 14                	je     8049734 <test+0x46>
 8049720:	83 ec 0c             	sub    $0xc,%esp
 8049723:	8d 83 a8 e0 ff ff    	lea    -0x1f58(%ebx),%eax
 8049729:	50                   	push   %eax
 804972a:	e8 41 fc ff ff       	call   8049370 <puts@plt>
 804972f:	83 c4 10             	add    $0x10,%esp
 8049732:	eb 46                	jmp    804977a <test+0x8c>
 8049734:	8b 55 f4             	mov    -0xc(%ebp),%edx
 8049737:	8b 83 10 01 00 00    	mov    0x110(%ebx),%eax
 804973d:	39 c2                	cmp    %eax,%edx
 804973f:	75 24                	jne    8049765 <test+0x77>
 8049741:	83 ec 08             	sub    $0x8,%esp
 8049744:	ff 75 f4             	pushl  -0xc(%ebp)
 8049747:	8d 83 d1 e0 ff ff    	lea    -0x1f2f(%ebx),%eax
 804974d:	50                   	push   %eax
 804974e:	e8 5d fb ff ff       	call   80492b0 <printf@plt>
 8049753:	83 c4 10             	add    $0x10,%esp
 8049756:	83 ec 0c             	sub    $0xc,%esp
 8049759:	6a 03                	push   $0x3
 804975b:	e8 ae 0a 00 00       	call   804a20e <validate>
 8049760:	83 c4 10             	add    $0x10,%esp
 8049763:	eb 15                	jmp    804977a <test+0x8c>
 8049765:	83 ec 08             	sub    $0x8,%esp
 8049768:	ff 75 f4             	pushl  -0xc(%ebp)
 804976b:	8d 83 ee e0 ff ff    	lea    -0x1f12(%ebx),%eax
 8049771:	50                   	push   %eax
 8049772:	e8 39 fb ff ff       	call   80492b0 <printf@plt>
 8049777:	83 c4 10             	add    $0x10,%esp
 804977a:	90                   	nop
 804977b:	8b 5d fc             	mov    -0x4(%ebp),%ebx
 804977e:	c9                   	leave  
 804977f:	c3                   	ret    

08049780 <testn>:
 8049780:	f3 0f 1e fb          	endbr32 
 8049784:	55                   	push   %ebp
 8049785:	89 e5                	mov    %esp,%ebp
 8049787:	53                   	push   %ebx
 8049788:	83 ec 14             	sub    $0x14,%esp
 804978b:	e8 80 fd ff ff       	call   8049510 <__x86.get_pc_thunk.bx>
 8049790:	81 c3 70 48 00 00    	add    $0x4870,%ebx
 8049796:	e8 e1 05 00 00       	call   8049d7c <uniqueval>
 804979b:	89 45 f0             	mov    %eax,-0x10(%ebp)
 804979e:	e8 d0 08 00 00       	call   804a073 <getbufn>
 80497a3:	89 45 f4             	mov    %eax,-0xc(%ebp)
 80497a6:	e8 d1 05 00 00       	call   8049d7c <uniqueval>
 80497ab:	8b 55 f0             	mov    -0x10(%ebp),%edx
 80497ae:	39 d0                	cmp    %edx,%eax
 80497b0:	74 14                	je     80497c6 <testn+0x46>
 80497b2:	83 ec 0c             	sub    $0xc,%esp
 80497b5:	8d 83 a8 e0 ff ff    	lea    -0x1f58(%ebx),%eax
 80497bb:	50                   	push   %eax
 80497bc:	e8 af fb ff ff       	call   8049370 <puts@plt>
 80497c1:	83 c4 10             	add    $0x10,%esp
 80497c4:	eb 46                	jmp    804980c <testn+0x8c>
 80497c6:	8b 55 f4             	mov    -0xc(%ebp),%edx
 80497c9:	8b 83 10 01 00 00    	mov    0x110(%ebx),%eax
 80497cf:	39 c2                	cmp    %eax,%edx
 80497d1:	75 24                	jne    80497f7 <testn+0x77>
 80497d3:	83 ec 08             	sub    $0x8,%esp
 80497d6:	ff 75 f4             	pushl  -0xc(%ebp)
 80497d9:	8d 83 0c e1 ff ff    	lea    -0x1ef4(%ebx),%eax
 80497df:	50                   	push   %eax
 80497e0:	e8 cb fa ff ff       	call   80492b0 <printf@plt>
 80497e5:	83 c4 10             	add    $0x10,%esp
 80497e8:	83 ec 0c             	sub    $0xc,%esp
 80497eb:	6a 04                	push   $0x4
 80497ed:	e8 1c 0a 00 00       	call   804a20e <validate>
 80497f2:	83 c4 10             	add    $0x10,%esp
 80497f5:	eb 15                	jmp    804980c <testn+0x8c>
 80497f7:	83 ec 08             	sub    $0x8,%esp
 80497fa:	ff 75 f4             	pushl  -0xc(%ebp)
 80497fd:	8d 83 2c e1 ff ff    	lea    -0x1ed4(%ebx),%eax
 8049803:	50                   	push   %eax
 8049804:	e8 a7 fa ff ff       	call   80492b0 <printf@plt>
 8049809:	83 c4 10             	add    $0x10,%esp
 804980c:	90                   	nop
 804980d:	8b 5d fc             	mov    -0x4(%ebp),%ebx
 8049810:	c9                   	leave  
 8049811:	c3                   	ret    

08049812 <testr>:
 8049812:	f3 0f 1e fb          	endbr32 
 8049816:	55                   	push   %ebp
 8049817:	89 e5                	mov    %esp,%ebp
 8049819:	53                   	push   %ebx
 804981a:	83 ec 14             	sub    $0x14,%esp
 804981d:	e8 ee fc ff ff       	call   8049510 <__x86.get_pc_thunk.bx>
 8049822:	81 c3 de 47 00 00    	add    $0x47de,%ebx
 8049828:	e8 4f 05 00 00       	call   8049d7c <uniqueval>
 804982d:	89 45 f0             	mov    %eax,-0x10(%ebp)
 8049830:	8b 83 10 01 00 00    	mov    0x110(%ebx),%eax
 8049836:	83 ec 04             	sub    $0x4,%esp
 8049839:	50                   	push   %eax
 804983a:	8d 83 48 e1 ff ff    	lea    -0x1eb8(%ebx),%eax
 8049840:	50                   	push   %eax
 8049841:	8d 83 20 01 00 00    	lea    0x120(%ebx),%eax
 8049847:	50                   	push   %eax
 8049848:	e8 f3 fb ff ff       	call   8049440 <sprintf@plt>
 804984d:	83 c4 10             	add    $0x10,%esp
 8049850:	e8 ee 07 00 00       	call   804a043 <getbuf>
 8049855:	89 45 f4             	mov    %eax,-0xc(%ebp)
 8049858:	83 7d f4 22          	cmpl   $0x22,-0xc(%ebp)
 804985c:	75 17                	jne    8049875 <testr+0x63>
 804985e:	83 ec 0c             	sub    $0xc,%esp
 8049861:	6a 05                	push   $0x5
 8049863:	e8 a6 09 00 00       	call   804a20e <validate>
 8049868:	83 c4 10             	add    $0x10,%esp
 804986b:	83 ec 0c             	sub    $0xc,%esp
 804986e:	6a 00                	push   $0x0
 8049870:	e8 0b fb ff ff       	call   8049380 <exit@plt>
 8049875:	e8 02 05 00 00       	call   8049d7c <uniqueval>
 804987a:	8b 55 f0             	mov    -0x10(%ebp),%edx
 804987d:	39 d0                	cmp    %edx,%eax
 804987f:	74 14                	je     8049895 <testr+0x83>
 8049881:	83 ec 0c             	sub    $0xc,%esp
 8049884:	8d 83 a8 e0 ff ff    	lea    -0x1f58(%ebx),%eax
 804988a:	50                   	push   %eax
 804988b:	e8 e0 fa ff ff       	call   8049370 <puts@plt>
 8049890:	83 c4 10             	add    $0x10,%esp
 8049893:	eb 15                	jmp    80498aa <testr+0x98>
 8049895:	83 ec 08             	sub    $0x8,%esp
 8049898:	ff 75 f4             	pushl  -0xc(%ebp)
 804989b:	8d 83 ee e0 ff ff    	lea    -0x1f12(%ebx),%eax
 80498a1:	50                   	push   %eax
 80498a2:	e8 09 fa ff ff       	call   80492b0 <printf@plt>
 80498a7:	83 c4 10             	add    $0x10,%esp
 80498aa:	90                   	nop
 80498ab:	8b 5d fc             	mov    -0x4(%ebp),%ebx
 80498ae:	c9                   	leave  
 80498af:	c3                   	ret    

080498b0 <save_char>:
 80498b0:	f3 0f 1e fb          	endbr32 
 80498b4:	55                   	push   %ebp
 80498b5:	89 e5                	mov    %esp,%ebp
 80498b7:	56                   	push   %esi
 80498b8:	53                   	push   %ebx
 80498b9:	83 ec 04             	sub    $0x4,%esp
 80498bc:	e8 7a 07 00 00       	call   804a03b <__x86.get_pc_thunk.ax>
 80498c1:	05 3f 47 00 00       	add    $0x473f,%eax
 80498c6:	8b 55 08             	mov    0x8(%ebp),%edx
 80498c9:	88 55 f4             	mov    %dl,-0xc(%ebp)
 80498cc:	8b 90 4c 01 00 00    	mov    0x14c(%eax),%edx
 80498d2:	81 fa ff 03 00 00    	cmp    $0x3ff,%edx
 80498d8:	7f 7e                	jg     8049958 <save_char+0xa8>
 80498da:	0f b6 55 f4          	movzbl -0xc(%ebp),%edx
 80498de:	c0 fa 04             	sar    $0x4,%dl
 80498e1:	0f be d2             	movsbl %dl,%edx
 80498e4:	89 d6                	mov    %edx,%esi
 80498e6:	83 e6 0f             	and    $0xf,%esi
 80498e9:	8b 88 4c 01 00 00    	mov    0x14c(%eax),%ecx
 80498ef:	89 ca                	mov    %ecx,%edx
 80498f1:	01 d2                	add    %edx,%edx
 80498f3:	8d 1c 0a             	lea    (%edx,%ecx,1),%ebx
 80498f6:	0f b6 8c 30 a4 00 00 	movzbl 0xa4(%eax,%esi,1),%ecx
 80498fd:	00 
 80498fe:	c7 c2 80 f1 04 08    	mov    $0x804f180,%edx
 8049904:	88 0c 1a             	mov    %cl,(%edx,%ebx,1)
 8049907:	0f be 55 f4          	movsbl -0xc(%ebp),%edx
 804990b:	89 d6                	mov    %edx,%esi
 804990d:	83 e6 0f             	and    $0xf,%esi
 8049910:	8b 88 4c 01 00 00    	mov    0x14c(%eax),%ecx
 8049916:	89 ca                	mov    %ecx,%edx
 8049918:	01 d2                	add    %edx,%edx
 804991a:	01 ca                	add    %ecx,%edx
 804991c:	8d 5a 01             	lea    0x1(%edx),%ebx
 804991f:	0f b6 8c 30 a4 00 00 	movzbl 0xa4(%eax,%esi,1),%ecx
 8049926:	00 
 8049927:	c7 c2 80 f1 04 08    	mov    $0x804f180,%edx
 804992d:	88 0c 1a             	mov    %cl,(%edx,%ebx,1)
 8049930:	8b 88 4c 01 00 00    	mov    0x14c(%eax),%ecx
 8049936:	89 ca                	mov    %ecx,%edx
 8049938:	01 d2                	add    %edx,%edx
 804993a:	01 ca                	add    %ecx,%edx
 804993c:	8d 4a 02             	lea    0x2(%edx),%ecx
 804993f:	c7 c2 80 f1 04 08    	mov    $0x804f180,%edx
 8049945:	c6 04 0a 20          	movb   $0x20,(%edx,%ecx,1)
 8049949:	8b 90 4c 01 00 00    	mov    0x14c(%eax),%edx
 804994f:	83 c2 01             	add    $0x1,%edx
 8049952:	89 90 4c 01 00 00    	mov    %edx,0x14c(%eax)
 8049958:	90                   	nop
 8049959:	83 c4 04             	add    $0x4,%esp
 804995c:	5b                   	pop    %ebx
 804995d:	5e                   	pop    %esi
 804995e:	5d                   	pop    %ebp
 804995f:	c3                   	ret    

08049960 <save_term>:
 8049960:	f3 0f 1e fb          	endbr32 
 8049964:	55                   	push   %ebp
 8049965:	89 e5                	mov    %esp,%ebp
 8049967:	e8 d3 06 00 00       	call   804a03f <__x86.get_pc_thunk.dx>
 804996c:	81 c2 94 46 00 00    	add    $0x4694,%edx
 8049972:	8b 8a 4c 01 00 00    	mov    0x14c(%edx),%ecx
 8049978:	89 c8                	mov    %ecx,%eax
 804997a:	01 c0                	add    %eax,%eax
 804997c:	01 c1                	add    %eax,%ecx
 804997e:	c7 c0 80 f1 04 08    	mov    $0x804f180,%eax
 8049984:	c6 04 08 00          	movb   $0x0,(%eax,%ecx,1)
 8049988:	90                   	nop
 8049989:	5d                   	pop    %ebp
 804998a:	c3                   	ret    

0804998b <Gets>:
 804998b:	f3 0f 1e fb          	endbr32 
 804998f:	55                   	push   %ebp
 8049990:	89 e5                	mov    %esp,%ebp
 8049992:	53                   	push   %ebx
 8049993:	83 ec 14             	sub    $0x14,%esp
 8049996:	e8 75 fb ff ff       	call   8049510 <__x86.get_pc_thunk.bx>
 804999b:	81 c3 65 46 00 00    	add    $0x4665,%ebx
 80499a1:	8b 45 08             	mov    0x8(%ebp),%eax
 80499a4:	89 45 f0             	mov    %eax,-0x10(%ebp)
 80499a7:	c7 83 4c 01 00 00 00 	movl   $0x0,0x14c(%ebx)
 80499ae:	00 00 00 
 80499b1:	eb 1d                	jmp    80499d0 <Gets+0x45>
 80499b3:	8b 45 f0             	mov    -0x10(%ebp),%eax
 80499b6:	8d 50 01             	lea    0x1(%eax),%edx
 80499b9:	89 55 f0             	mov    %edx,-0x10(%ebp)
 80499bc:	8b 55 f4             	mov    -0xc(%ebp),%edx
 80499bf:	88 10                	mov    %dl,(%eax)
 80499c1:	8b 45 f4             	mov    -0xc(%ebp),%eax
 80499c4:	0f be c0             	movsbl %al,%eax
 80499c7:	50                   	push   %eax
 80499c8:	e8 e3 fe ff ff       	call   80498b0 <save_char>
 80499cd:	83 c4 04             	add    $0x4,%esp
 80499d0:	8b 83 0c 01 00 00    	mov    0x10c(%ebx),%eax
 80499d6:	83 ec 0c             	sub    $0xc,%esp
 80499d9:	50                   	push   %eax
 80499da:	e8 81 fa ff ff       	call   8049460 <getc@plt>
 80499df:	83 c4 10             	add    $0x10,%esp
 80499e2:	89 45 f4             	mov    %eax,-0xc(%ebp)
 80499e5:	83 7d f4 ff          	cmpl   $0xffffffff,-0xc(%ebp)
 80499e9:	74 06                	je     80499f1 <Gets+0x66>
 80499eb:	83 7d f4 0a          	cmpl   $0xa,-0xc(%ebp)
 80499ef:	75 c2                	jne    80499b3 <Gets+0x28>
 80499f1:	8b 45 f0             	mov    -0x10(%ebp),%eax
 80499f4:	8d 50 01             	lea    0x1(%eax),%edx
 80499f7:	89 55 f0             	mov    %edx,-0x10(%ebp)
 80499fa:	c6 00 00             	movb   $0x0,(%eax)
 80499fd:	e8 5e ff ff ff       	call   8049960 <save_term>
 8049a02:	8b 45 08             	mov    0x8(%ebp),%eax
 8049a05:	8b 5d fc             	mov    -0x4(%ebp),%ebx
 8049a08:	c9                   	leave  
 8049a09:	c3                   	ret    

08049a0a <usage>:
 8049a0a:	f3 0f 1e fb          	endbr32 
 8049a0e:	55                   	push   %ebp
 8049a0f:	89 e5                	mov    %esp,%ebp
 8049a11:	53                   	push   %ebx
 8049a12:	83 ec 04             	sub    $0x4,%esp
 8049a15:	e8 f6 fa ff ff       	call   8049510 <__x86.get_pc_thunk.bx>
 8049a1a:	81 c3 e6 45 00 00    	add    $0x45e6,%ebx
 8049a20:	83 ec 08             	sub    $0x8,%esp
 8049a23:	ff 75 08             	pushl  0x8(%ebp)
 8049a26:	8d 83 64 e1 ff ff    	lea    -0x1e9c(%ebx),%eax
 8049a2c:	50                   	push   %eax
 8049a2d:	e8 7e f8 ff ff       	call   80492b0 <printf@plt>
 8049a32:	83 c4 10             	add    $0x10,%esp
 8049a35:	83 ec 0c             	sub    $0xc,%esp
 8049a38:	8d 83 82 e1 ff ff    	lea    -0x1e7e(%ebx),%eax
 8049a3e:	50                   	push   %eax
 8049a3f:	e8 2c f9 ff ff       	call   8049370 <puts@plt>
 8049a44:	83 c4 10             	add    $0x10,%esp
 8049a47:	83 ec 0c             	sub    $0xc,%esp
 8049a4a:	8d 83 98 e1 ff ff    	lea    -0x1e68(%ebx),%eax
 8049a50:	50                   	push   %eax
 8049a51:	e8 1a f9 ff ff       	call   8049370 <puts@plt>
 8049a56:	83 c4 10             	add    $0x10,%esp
 8049a59:	83 ec 0c             	sub    $0xc,%esp
 8049a5c:	8d 83 b1 e1 ff ff    	lea    -0x1e4f(%ebx),%eax
 8049a62:	50                   	push   %eax
 8049a63:	e8 08 f9 ff ff       	call   8049370 <puts@plt>
 8049a68:	83 c4 10             	add    $0x10,%esp
 8049a6b:	83 ec 0c             	sub    $0xc,%esp
 8049a6e:	8d 83 cc e1 ff ff    	lea    -0x1e34(%ebx),%eax
 8049a74:	50                   	push   %eax
 8049a75:	e8 f6 f8 ff ff       	call   8049370 <puts@plt>
 8049a7a:	83 c4 10             	add    $0x10,%esp
 8049a7d:	83 ec 0c             	sub    $0xc,%esp
 8049a80:	8d 83 08 e2 ff ff    	lea    -0x1df8(%ebx),%eax
 8049a86:	50                   	push   %eax
 8049a87:	e8 e4 f8 ff ff       	call   8049370 <puts@plt>
 8049a8c:	83 c4 10             	add    $0x10,%esp
 8049a8f:	83 ec 0c             	sub    $0xc,%esp
 8049a92:	6a 00                	push   $0x0
 8049a94:	e8 e7 f8 ff ff       	call   8049380 <exit@plt>

08049a99 <bushandler>:
 8049a99:	f3 0f 1e fb          	endbr32 
 8049a9d:	55                   	push   %ebp
 8049a9e:	89 e5                	mov    %esp,%ebp
 8049aa0:	53                   	push   %ebx
 8049aa1:	83 ec 04             	sub    $0x4,%esp
 8049aa4:	e8 67 fa ff ff       	call   8049510 <__x86.get_pc_thunk.bx>
 8049aa9:	81 c3 57 45 00 00    	add    $0x4557,%ebx
 8049aaf:	83 ec 0c             	sub    $0xc,%esp
 8049ab2:	8d 83 30 e2 ff ff    	lea    -0x1dd0(%ebx),%eax
 8049ab8:	50                   	push   %eax
 8049ab9:	e8 b2 f8 ff ff       	call   8049370 <puts@plt>
 8049abe:	83 c4 10             	add    $0x10,%esp
 8049ac1:	83 ec 0c             	sub    $0xc,%esp
 8049ac4:	8d 83 50 e2 ff ff    	lea    -0x1db0(%ebx),%eax
 8049aca:	50                   	push   %eax
 8049acb:	e8 a0 f8 ff ff       	call   8049370 <puts@plt>
 8049ad0:	83 c4 10             	add    $0x10,%esp
 8049ad3:	83 ec 0c             	sub    $0xc,%esp
 8049ad6:	6a 00                	push   $0x0
 8049ad8:	e8 a3 f8 ff ff       	call   8049380 <exit@plt>

08049add <seghandler>:
 8049add:	f3 0f 1e fb          	endbr32 
 8049ae1:	55                   	push   %ebp
 8049ae2:	89 e5                	mov    %esp,%ebp
 8049ae4:	53                   	push   %ebx
 8049ae5:	83 ec 04             	sub    $0x4,%esp
 8049ae8:	e8 23 fa ff ff       	call   8049510 <__x86.get_pc_thunk.bx>
 8049aed:	81 c3 13 45 00 00    	add    $0x4513,%ebx
 8049af3:	83 ec 0c             	sub    $0xc,%esp
 8049af6:	8d 83 68 e2 ff ff    	lea    -0x1d98(%ebx),%eax
 8049afc:	50                   	push   %eax
 8049afd:	e8 6e f8 ff ff       	call   8049370 <puts@plt>
 8049b02:	83 c4 10             	add    $0x10,%esp
 8049b05:	83 ec 0c             	sub    $0xc,%esp
 8049b08:	8d 83 50 e2 ff ff    	lea    -0x1db0(%ebx),%eax
 8049b0e:	50                   	push   %eax
 8049b0f:	e8 5c f8 ff ff       	call   8049370 <puts@plt>
 8049b14:	83 c4 10             	add    $0x10,%esp
 8049b17:	83 ec 0c             	sub    $0xc,%esp
 8049b1a:	6a 00                	push   $0x0
 8049b1c:	e8 5f f8 ff ff       	call   8049380 <exit@plt>

08049b21 <illegalhandler>:
 8049b21:	f3 0f 1e fb          	endbr32 
 8049b25:	55                   	push   %ebp
 8049b26:	89 e5                	mov    %esp,%ebp
 8049b28:	53                   	push   %ebx
 8049b29:	83 ec 04             	sub    $0x4,%esp
 8049b2c:	e8 df f9 ff ff       	call   8049510 <__x86.get_pc_thunk.bx>
 8049b31:	81 c3 cf 44 00 00    	add    $0x44cf,%ebx
 8049b37:	83 ec 0c             	sub    $0xc,%esp
 8049b3a:	8d 83 90 e2 ff ff    	lea    -0x1d70(%ebx),%eax
 8049b40:	50                   	push   %eax
 8049b41:	e8 2a f8 ff ff       	call   8049370 <puts@plt>
 8049b46:	83 c4 10             	add    $0x10,%esp
 8049b49:	83 ec 0c             	sub    $0xc,%esp
 8049b4c:	8d 83 50 e2 ff ff    	lea    -0x1db0(%ebx),%eax
 8049b52:	50                   	push   %eax
 8049b53:	e8 18 f8 ff ff       	call   8049370 <puts@plt>
 8049b58:	83 c4 10             	add    $0x10,%esp
 8049b5b:	83 ec 0c             	sub    $0xc,%esp
 8049b5e:	6a 00                	push   $0x0
 8049b60:	e8 1b f8 ff ff       	call   8049380 <exit@plt>

08049b65 <launch>:
 8049b65:	f3 0f 1e fb          	endbr32 
 8049b69:	55                   	push   %ebp
 8049b6a:	89 e5                	mov    %esp,%ebp
 8049b6c:	53                   	push   %ebx
 8049b6d:	83 ec 54             	sub    $0x54,%esp
 8049b70:	e8 9b f9 ff ff       	call   8049510 <__x86.get_pc_thunk.bx>
 8049b75:	81 c3 8b 44 00 00    	add    $0x448b,%ebx
 8049b7b:	65 a1 14 00 00 00    	mov    %gs:0x14,%eax
 8049b81:	89 45 f4             	mov    %eax,-0xc(%ebp)
 8049b84:	31 c0                	xor    %eax,%eax
 8049b86:	c7 45 ac 00 00 00 00 	movl   $0x0,-0x54(%ebp)
 8049b8d:	8d 45 b4             	lea    -0x4c(%ebp),%eax
 8049b90:	25 f0 3f 00 00       	and    $0x3ff0,%eax
 8049b95:	89 45 ac             	mov    %eax,-0x54(%ebp)
 8049b98:	8b 55 10             	mov    0x10(%ebp),%edx
 8049b9b:	8b 45 ac             	mov    -0x54(%ebp),%eax
 8049b9e:	01 d0                	add    %edx,%eax
 8049ba0:	8d 50 0c             	lea    0xc(%eax),%edx
 8049ba3:	b8 10 00 00 00       	mov    $0x10,%eax
 8049ba8:	83 e8 01             	sub    $0x1,%eax
 8049bab:	01 d0                	add    %edx,%eax
 8049bad:	b9 10 00 00 00       	mov    $0x10,%ecx
 8049bb2:	ba 00 00 00 00       	mov    $0x0,%edx
 8049bb7:	f7 f1                	div    %ecx
 8049bb9:	6b c0 10             	imul   $0x10,%eax,%eax
 8049bbc:	89 c2                	mov    %eax,%edx
 8049bbe:	81 e2 00 f0 ff ff    	and    $0xfffff000,%edx
 8049bc4:	89 e1                	mov    %esp,%ecx
 8049bc6:	29 d1                	sub    %edx,%ecx
 8049bc8:	89 ca                	mov    %ecx,%edx
 8049bca:	39 d4                	cmp    %edx,%esp
 8049bcc:	74 10                	je     8049bde <launch+0x79>
 8049bce:	81 ec 00 10 00 00    	sub    $0x1000,%esp
 8049bd4:	83 8c 24 fc 0f 00 00 	orl    $0x0,0xffc(%esp)
 8049bdb:	00 
 8049bdc:	eb ec                	jmp    8049bca <launch+0x65>
 8049bde:	89 c2                	mov    %eax,%edx
 8049be0:	81 e2 ff 0f 00 00    	and    $0xfff,%edx
 8049be6:	29 d4                	sub    %edx,%esp
 8049be8:	89 c2                	mov    %eax,%edx
 8049bea:	81 e2 ff 0f 00 00    	and    $0xfff,%edx
 8049bf0:	85 d2                	test   %edx,%edx
 8049bf2:	74 0d                	je     8049c01 <launch+0x9c>
 8049bf4:	25 ff 0f 00 00       	and    $0xfff,%eax
 8049bf9:	83 e8 04             	sub    $0x4,%eax
 8049bfc:	01 e0                	add    %esp,%eax
 8049bfe:	83 08 00             	orl    $0x0,(%eax)
 8049c01:	89 e0                	mov    %esp,%eax
 8049c03:	83 c0 0f             	add    $0xf,%eax
 8049c06:	c1 e8 04             	shr    $0x4,%eax
 8049c09:	c1 e0 04             	shl    $0x4,%eax
 8049c0c:	89 45 b0             	mov    %eax,-0x50(%ebp)
 8049c0f:	83 ec 04             	sub    $0x4,%esp
 8049c12:	ff 75 ac             	pushl  -0x54(%ebp)
 8049c15:	68 f4 00 00 00       	push   $0xf4
 8049c1a:	ff 75 b0             	pushl  -0x50(%ebp)
 8049c1d:	e8 de f7 ff ff       	call   8049400 <memset@plt>
 8049c22:	83 c4 10             	add    $0x10,%esp
 8049c25:	83 ec 0c             	sub    $0xc,%esp
 8049c28:	8d 83 bb e2 ff ff    	lea    -0x1d45(%ebx),%eax
 8049c2e:	50                   	push   %eax
 8049c2f:	e8 7c f6 ff ff       	call   80492b0 <printf@plt>
 8049c34:	83 c4 10             	add    $0x10,%esp
 8049c37:	83 7d 08 00          	cmpl   $0x0,0x8(%ebp)
 8049c3b:	74 07                	je     8049c44 <launch+0xdf>
 8049c3d:	e8 3e fb ff ff       	call   8049780 <testn>
 8049c42:	eb 12                	jmp    8049c56 <launch+0xf1>
 8049c44:	83 7d 0c 00          	cmpl   $0x0,0xc(%ebp)
 8049c48:	74 07                	je     8049c51 <launch+0xec>
 8049c4a:	e8 c3 fb ff ff       	call   8049812 <testr>
 8049c4f:	eb 05                	jmp    8049c56 <launch+0xf1>
 8049c51:	e8 98 fa ff ff       	call   80496ee <test>
 8049c56:	8b 83 44 01 00 00    	mov    0x144(%ebx),%eax
 8049c5c:	85 c0                	test   %eax,%eax
 8049c5e:	75 1c                	jne    8049c7c <launch+0x117>
 8049c60:	83 ec 0c             	sub    $0xc,%esp
 8049c63:	8d 83 50 e2 ff ff    	lea    -0x1db0(%ebx),%eax
 8049c69:	50                   	push   %eax
 8049c6a:	e8 01 f7 ff ff       	call   8049370 <puts@plt>
 8049c6f:	83 c4 10             	add    $0x10,%esp
 8049c72:	c7 83 44 01 00 00 00 	movl   $0x0,0x144(%ebx)
 8049c79:	00 00 00 
 8049c7c:	90                   	nop
 8049c7d:	8b 45 f4             	mov    -0xc(%ebp),%eax
 8049c80:	65 33 05 14 00 00 00 	xor    %gs:0x14,%eax
 8049c87:	74 05                	je     8049c8e <launch+0x129>
 8049c89:	e8 f2 16 00 00       	call   804b380 <__stack_chk_fail_local>
 8049c8e:	8b 5d fc             	mov    -0x4(%ebp),%ebx
 8049c91:	c9                   	leave  
 8049c92:	c3                   	ret    

08049c93 <launcher>:
 8049c93:	f3 0f 1e fb          	endbr32 
 8049c97:	55                   	push   %ebp
 8049c98:	89 e5                	mov    %esp,%ebp
 8049c9a:	53                   	push   %ebx
 8049c9b:	83 ec 14             	sub    $0x14,%esp
 8049c9e:	e8 6d f8 ff ff       	call   8049510 <__x86.get_pc_thunk.bx>
 8049ca3:	81 c3 5d 43 00 00    	add    $0x435d,%ebx
 8049ca9:	8b 45 08             	mov    0x8(%ebp),%eax
 8049cac:	89 83 50 01 00 00    	mov    %eax,0x150(%ebx)
 8049cb2:	8b 45 0c             	mov    0xc(%ebp),%eax
 8049cb5:	89 83 54 01 00 00    	mov    %eax,0x154(%ebx)
 8049cbb:	8b 45 10             	mov    0x10(%ebp),%eax
 8049cbe:	89 83 58 01 00 00    	mov    %eax,0x158(%ebx)
 8049cc4:	83 ec 08             	sub    $0x8,%esp
 8049cc7:	6a 00                	push   $0x0
 8049cc9:	6a 00                	push   $0x0
 8049ccb:	68 32 01 00 00       	push   $0x132
 8049cd0:	6a 07                	push   $0x7
 8049cd2:	68 00 00 10 00       	push   $0x100000
 8049cd7:	68 00 60 58 55       	push   $0x55586000
 8049cdc:	e8 bf f6 ff ff       	call   80493a0 <mmap@plt>
 8049ce1:	83 c4 20             	add    $0x20,%esp
 8049ce4:	89 45 f4             	mov    %eax,-0xc(%ebp)
 8049ce7:	81 7d f4 00 60 58 55 	cmpl   $0x55586000,-0xc(%ebp)
 8049cee:	74 26                	je     8049d16 <launcher+0x83>
 8049cf0:	8b 83 f0 ff ff ff    	mov    -0x10(%ebx),%eax
 8049cf6:	8b 00                	mov    (%eax),%eax
 8049cf8:	50                   	push   %eax
 8049cf9:	6a 47                	push   $0x47
 8049cfb:	6a 01                	push   $0x1
 8049cfd:	8d 83 c8 e2 ff ff    	lea    -0x1d38(%ebx),%eax
 8049d03:	50                   	push   %eax
 8049d04:	e8 27 f6 ff ff       	call   8049330 <fwrite@plt>
 8049d09:	83 c4 10             	add    $0x10,%esp
 8049d0c:	83 ec 0c             	sub    $0xc,%esp
 8049d0f:	6a 01                	push   $0x1
 8049d11:	e8 6a f6 ff ff       	call   8049380 <exit@plt>
 8049d16:	8b 45 f4             	mov    -0xc(%ebp),%eax
 8049d19:	8d 90 f8 ff 0f 00    	lea    0xffff8(%eax),%edx
 8049d1f:	c7 c0 60 f1 04 08    	mov    $0x804f160,%eax
 8049d25:	89 10                	mov    %edx,(%eax)
 8049d27:	c7 c0 60 f1 04 08    	mov    $0x804f160,%eax
 8049d2d:	8b 10                	mov    (%eax),%edx
 8049d2f:	89 e0                	mov    %esp,%eax
 8049d31:	89 d4                	mov    %edx,%esp
 8049d33:	89 c2                	mov    %eax,%edx
 8049d35:	89 93 5c 01 00 00    	mov    %edx,0x15c(%ebx)
 8049d3b:	8b 8b 58 01 00 00    	mov    0x158(%ebx),%ecx
 8049d41:	8b 93 54 01 00 00    	mov    0x154(%ebx),%edx
 8049d47:	8b 83 50 01 00 00    	mov    0x150(%ebx),%eax
 8049d4d:	83 ec 04             	sub    $0x4,%esp
 8049d50:	51                   	push   %ecx
 8049d51:	52                   	push   %edx
 8049d52:	50                   	push   %eax
 8049d53:	e8 0d fe ff ff       	call   8049b65 <launch>
 8049d58:	83 c4 10             	add    $0x10,%esp
 8049d5b:	8b 83 5c 01 00 00    	mov    0x15c(%ebx),%eax
 8049d61:	89 c4                	mov    %eax,%esp
 8049d63:	83 ec 08             	sub    $0x8,%esp
 8049d66:	68 00 00 10 00       	push   $0x100000
 8049d6b:	ff 75 f4             	pushl  -0xc(%ebp)
 8049d6e:	e8 bd f6 ff ff       	call   8049430 <munmap@plt>
 8049d73:	83 c4 10             	add    $0x10,%esp
 8049d76:	90                   	nop
 8049d77:	8b 5d fc             	mov    -0x4(%ebp),%ebx
 8049d7a:	c9                   	leave  
 8049d7b:	c3                   	ret    

08049d7c <uniqueval>:
 8049d7c:	f3 0f 1e fb          	endbr32 
 8049d80:	55                   	push   %ebp
 8049d81:	89 e5                	mov    %esp,%ebp
 8049d83:	53                   	push   %ebx
 8049d84:	83 ec 04             	sub    $0x4,%esp
 8049d87:	e8 84 f7 ff ff       	call   8049510 <__x86.get_pc_thunk.bx>
 8049d8c:	81 c3 74 42 00 00    	add    $0x4274,%ebx
 8049d92:	e8 b9 f5 ff ff       	call   8049350 <getpid@plt>
 8049d97:	83 ec 0c             	sub    $0xc,%esp
 8049d9a:	50                   	push   %eax
 8049d9b:	e8 00 f5 ff ff       	call   80492a0 <srandom@plt>
 8049da0:	83 c4 10             	add    $0x10,%esp
 8049da3:	e8 c8 f6 ff ff       	call   8049470 <random@plt>
 8049da8:	8b 5d fc             	mov    -0x4(%ebp),%ebx
 8049dab:	c9                   	leave  
 8049dac:	c3                   	ret    

08049dad <main>:
 8049dad:	f3 0f 1e fb          	endbr32 
 8049db1:	8d 4c 24 04          	lea    0x4(%esp),%ecx
 8049db5:	83 e4 f0             	and    $0xfffffff0,%esp
 8049db8:	ff 71 fc             	pushl  -0x4(%ecx)
 8049dbb:	55                   	push   %ebp
 8049dbc:	89 e5                	mov    %esp,%ebp
 8049dbe:	56                   	push   %esi
 8049dbf:	53                   	push   %ebx
 8049dc0:	51                   	push   %ecx
 8049dc1:	83 ec 2c             	sub    $0x2c,%esp
 8049dc4:	e8 47 f7 ff ff       	call   8049510 <__x86.get_pc_thunk.bx>
 8049dc9:	81 c3 37 42 00 00    	add    $0x4237,%ebx
 8049dcf:	89 ce                	mov    %ecx,%esi
 8049dd1:	c7 45 e0 00 00 00 00 	movl   $0x0,-0x20(%ebp)
 8049dd8:	c7 45 d0 00 00 00 00 	movl   $0x0,-0x30(%ebp)
 8049ddf:	c7 45 d4 00 00 00 00 	movl   $0x0,-0x2c(%ebp)
 8049de6:	c7 45 dc 01 00 00 00 	movl   $0x1,-0x24(%ebp)
 8049ded:	83 ec 08             	sub    $0x8,%esp
 8049df0:	8d 83 dd ba ff ff    	lea    -0x4523(%ebx),%eax
 8049df6:	50                   	push   %eax
 8049df7:	6a 0b                	push   $0xb
 8049df9:	e8 f2 f4 ff ff       	call   80492f0 <signal@plt>
 8049dfe:	83 c4 10             	add    $0x10,%esp
 8049e01:	83 ec 08             	sub    $0x8,%esp
 8049e04:	8d 83 99 ba ff ff    	lea    -0x4567(%ebx),%eax
 8049e0a:	50                   	push   %eax
 8049e0b:	6a 07                	push   $0x7
 8049e0d:	e8 de f4 ff ff       	call   80492f0 <signal@plt>
 8049e12:	83 c4 10             	add    $0x10,%esp
 8049e15:	83 ec 08             	sub    $0x8,%esp
 8049e18:	8d 83 21 bb ff ff    	lea    -0x44df(%ebx),%eax
 8049e1e:	50                   	push   %eax
 8049e1f:	6a 04                	push   $0x4
 8049e21:	e8 ca f4 ff ff       	call   80492f0 <signal@plt>
 8049e26:	83 c4 10             	add    $0x10,%esp
 8049e29:	8b 83 f8 ff ff ff    	mov    -0x8(%ebx),%eax
 8049e2f:	8b 00                	mov    (%eax),%eax
 8049e31:	89 83 0c 01 00 00    	mov    %eax,0x10c(%ebx)
 8049e37:	e9 a8 00 00 00       	jmp    8049ee4 <.L52+0x11>
 8049e3c:	0f be 45 cf          	movsbl -0x31(%ebp),%eax
 8049e40:	83 e8 67             	sub    $0x67,%eax
 8049e43:	83 f8 0e             	cmp    $0xe,%eax
 8049e46:	0f 87 87 00 00 00    	ja     8049ed3 <.L52>
 8049e4c:	c1 e0 02             	shl    $0x2,%eax
 8049e4f:	8b 84 18 60 e3 ff ff 	mov    -0x1ca0(%eax,%ebx,1),%eax
 8049e56:	01 d8                	add    %ebx,%eax
 8049e58:	3e ff e0             	notrack jmp *%eax

08049e5b <.L58>:
 8049e5b:	8b 46 04             	mov    0x4(%esi),%eax
 8049e5e:	8b 00                	mov    (%eax),%eax
 8049e60:	83 ec 0c             	sub    $0xc,%esp
 8049e63:	50                   	push   %eax
 8049e64:	e8 a1 fb ff ff       	call   8049a0a <usage>
 8049e69:	83 c4 10             	add    $0x10,%esp
 8049e6c:	eb 76                	jmp    8049ee4 <.L52+0x11>

08049e6e <.L57>:
 8049e6e:	c7 45 d0 01 00 00 00 	movl   $0x1,-0x30(%ebp)
 8049e75:	c7 45 dc 05 00 00 00 	movl   $0x5,-0x24(%ebp)
 8049e7c:	eb 66                	jmp    8049ee4 <.L52+0x11>

08049e7e <.L56>:
 8049e7e:	c7 45 d4 01 00 00 00 	movl   $0x1,-0x2c(%ebp)
 8049e85:	eb 5d                	jmp    8049ee4 <.L52+0x11>

08049e87 <.L53>:
 8049e87:	8b 83 fc ff ff ff    	mov    -0x4(%ebx),%eax
 8049e8d:	8b 00                	mov    (%eax),%eax
 8049e8f:	83 ec 0c             	sub    $0xc,%esp
 8049e92:	50                   	push   %eax
 8049e93:	e8 38 f4 ff ff       	call   80492d0 <strdup@plt>
 8049e98:	83 c4 10             	add    $0x10,%esp
 8049e9b:	89 83 00 01 00 00    	mov    %eax,0x100(%ebx)
 8049ea1:	8b 83 00 01 00 00    	mov    0x100(%ebx),%eax
 8049ea7:	83 ec 0c             	sub    $0xc,%esp
 8049eaa:	50                   	push   %eax
 8049eab:	e8 f9 13 00 00       	call   804b2a9 <gencookie>
 8049eb0:	83 c4 10             	add    $0x10,%esp
 8049eb3:	89 83 10 01 00 00    	mov    %eax,0x110(%ebx)
 8049eb9:	eb 29                	jmp    8049ee4 <.L52+0x11>

08049ebb <.L67>:
 8049ebb:	c7 83 04 01 00 00 01 	movl   $0x1,0x104(%ebx)
 8049ec2:	00 00 00 
 8049ec5:	eb 1d                	jmp    8049ee4 <.L52+0x11>

08049ec7 <.L59>:
 8049ec7:	c7 83 08 01 00 00 01 	movl   $0x1,0x108(%ebx)
 8049ece:	00 00 00 
 8049ed1:	eb 11                	jmp    8049ee4 <.L52+0x11>

08049ed3 <.L52>:
 8049ed3:	8b 46 04             	mov    0x4(%esi),%eax
 8049ed6:	8b 00                	mov    (%eax),%eax
 8049ed8:	83 ec 0c             	sub    $0xc,%esp
 8049edb:	50                   	push   %eax
 8049edc:	e8 29 fb ff ff       	call   8049a0a <usage>
 8049ee1:	83 c4 10             	add    $0x10,%esp
 8049ee4:	83 ec 04             	sub    $0x4,%esp
 8049ee7:	8d 83 10 e3 ff ff    	lea    -0x1cf0(%ebx),%eax
 8049eed:	50                   	push   %eax
 8049eee:	ff 76 04             	pushl  0x4(%esi)
 8049ef1:	ff 36                	pushl  (%esi)
 8049ef3:	e8 e8 f4 ff ff       	call   80493e0 <getopt@plt>
 8049ef8:	83 c4 10             	add    $0x10,%esp
 8049efb:	88 45 cf             	mov    %al,-0x31(%ebp)
 8049efe:	80 7d cf ff          	cmpb   $0xff,-0x31(%ebp)
 8049f02:	0f 85 34 ff ff ff    	jne    8049e3c <main+0x8f>
 8049f08:	8b 83 00 01 00 00    	mov    0x100(%ebx),%eax
 8049f0e:	85 c0                	test   %eax,%eax
 8049f10:	75 29                	jne    8049f3b <.L52+0x68>
 8049f12:	8b 46 04             	mov    0x4(%esi),%eax
 8049f15:	8b 00                	mov    (%eax),%eax
 8049f17:	83 ec 08             	sub    $0x8,%esp
 8049f1a:	50                   	push   %eax
 8049f1b:	8d 83 18 e3 ff ff    	lea    -0x1ce8(%ebx),%eax
 8049f21:	50                   	push   %eax
 8049f22:	e8 89 f3 ff ff       	call   80492b0 <printf@plt>
 8049f27:	83 c4 10             	add    $0x10,%esp
 8049f2a:	8b 46 04             	mov    0x4(%esi),%eax
 8049f2d:	8b 00                	mov    (%eax),%eax
 8049f2f:	83 ec 0c             	sub    $0xc,%esp
 8049f32:	50                   	push   %eax
 8049f33:	e8 d2 fa ff ff       	call   8049a0a <usage>
 8049f38:	83 c4 10             	add    $0x10,%esp
 8049f3b:	e8 69 01 00 00       	call   804a0a9 <initialize_bomb>
 8049f40:	8b 83 00 01 00 00    	mov    0x100(%ebx),%eax
 8049f46:	83 ec 08             	sub    $0x8,%esp
 8049f49:	50                   	push   %eax
 8049f4a:	8d 83 44 e3 ff ff    	lea    -0x1cbc(%ebx),%eax
 8049f50:	50                   	push   %eax
 8049f51:	e8 5a f3 ff ff       	call   80492b0 <printf@plt>
 8049f56:	83 c4 10             	add    $0x10,%esp
 8049f59:	8b 83 10 01 00 00    	mov    0x110(%ebx),%eax
 8049f5f:	83 ec 08             	sub    $0x8,%esp
 8049f62:	50                   	push   %eax
 8049f63:	8d 83 50 e3 ff ff    	lea    -0x1cb0(%ebx),%eax
 8049f69:	50                   	push   %eax
 8049f6a:	e8 41 f3 ff ff       	call   80492b0 <printf@plt>
 8049f6f:	83 c4 10             	add    $0x10,%esp
 8049f72:	8b 83 10 01 00 00    	mov    0x110(%ebx),%eax
 8049f78:	83 ec 0c             	sub    $0xc,%esp
 8049f7b:	50                   	push   %eax
 8049f7c:	e8 1f f3 ff ff       	call   80492a0 <srandom@plt>
 8049f81:	83 c4 10             	add    $0x10,%esp
 8049f84:	e8 e7 f4 ff ff       	call   8049470 <random@plt>
 8049f89:	25 f0 0f 00 00       	and    $0xff0,%eax
 8049f8e:	05 00 01 00 00       	add    $0x100,%eax
 8049f93:	89 45 e0             	mov    %eax,-0x20(%ebp)
 8049f96:	8b 45 dc             	mov    -0x24(%ebp),%eax
 8049f99:	83 ec 08             	sub    $0x8,%esp
 8049f9c:	6a 04                	push   $0x4
 8049f9e:	50                   	push   %eax
 8049f9f:	e8 0c f5 ff ff       	call   80494b0 <calloc@plt>
 8049fa4:	83 c4 10             	add    $0x10,%esp
 8049fa7:	89 45 e4             	mov    %eax,-0x1c(%ebp)
 8049faa:	8b 45 e4             	mov    -0x1c(%ebp),%eax
 8049fad:	c7 00 00 00 00 00    	movl   $0x0,(%eax)
 8049fb3:	c7 45 d8 01 00 00 00 	movl   $0x1,-0x28(%ebp)
 8049fba:	eb 2a                	jmp    8049fe6 <.L52+0x113>
 8049fbc:	e8 af f4 ff ff       	call   8049470 <random@plt>
 8049fc1:	25 f0 00 00 00       	and    $0xf0,%eax
 8049fc6:	89 c2                	mov    %eax,%edx
 8049fc8:	8b 45 d8             	mov    -0x28(%ebp),%eax
 8049fcb:	8d 0c 85 00 00 00 00 	lea    0x0(,%eax,4),%ecx
 8049fd2:	8b 45 e4             	mov    -0x1c(%ebp),%eax
 8049fd5:	01 c8                	add    %ecx,%eax
 8049fd7:	b9 80 00 00 00       	mov    $0x80,%ecx
 8049fdc:	29 d1                	sub    %edx,%ecx
 8049fde:	89 ca                	mov    %ecx,%edx
 8049fe0:	89 10                	mov    %edx,(%eax)
 8049fe2:	83 45 d8 01          	addl   $0x1,-0x28(%ebp)
 8049fe6:	8b 45 d8             	mov    -0x28(%ebp),%eax
 8049fe9:	3b 45 dc             	cmp    -0x24(%ebp),%eax
 8049fec:	7c ce                	jl     8049fbc <.L52+0xe9>
 8049fee:	c7 45 d8 00 00 00 00 	movl   $0x0,-0x28(%ebp)
 8049ff5:	eb 2c                	jmp    804a023 <.L52+0x150>
 8049ff7:	8b 45 d8             	mov    -0x28(%ebp),%eax
 8049ffa:	8d 14 85 00 00 00 00 	lea    0x0(,%eax,4),%edx
 804a001:	8b 45 e4             	mov    -0x1c(%ebp),%eax
 804a004:	01 d0                	add    %edx,%eax
 804a006:	8b 10                	mov    (%eax),%edx
 804a008:	8b 45 e0             	mov    -0x20(%ebp),%eax
 804a00b:	01 d0                	add    %edx,%eax
 804a00d:	83 ec 04             	sub    $0x4,%esp
 804a010:	50                   	push   %eax
 804a011:	ff 75 d4             	pushl  -0x2c(%ebp)
 804a014:	ff 75 d0             	pushl  -0x30(%ebp)
 804a017:	e8 77 fc ff ff       	call   8049c93 <launcher>
 804a01c:	83 c4 10             	add    $0x10,%esp
 804a01f:	83 45 d8 01          	addl   $0x1,-0x28(%ebp)
 804a023:	8b 45 d8             	mov    -0x28(%ebp),%eax
 804a026:	3b 45 dc             	cmp    -0x24(%ebp),%eax
 804a029:	7c cc                	jl     8049ff7 <.L52+0x124>
 804a02b:	b8 00 00 00 00       	mov    $0x0,%eax
 804a030:	8d 65 f4             	lea    -0xc(%ebp),%esp
 804a033:	59                   	pop    %ecx
 804a034:	5b                   	pop    %ebx
 804a035:	5e                   	pop    %esi
 804a036:	5d                   	pop    %ebp
 804a037:	8d 61 fc             	lea    -0x4(%ecx),%esp
 804a03a:	c3                   	ret    

0804a03b <__x86.get_pc_thunk.ax>:
 804a03b:	8b 04 24             	mov    (%esp),%eax
 804a03e:	c3                   	ret    

0804a03f <__x86.get_pc_thunk.dx>:
 804a03f:	8b 14 24             	mov    (%esp),%edx
 804a042:	c3                   	ret    

0804a043 <getbuf>:
 804a043:	f3 0f 1e fb          	endbr32 
 804a047:	55                   	push   %ebp
 804a048:	89 e5                	mov    %esp,%ebp
 804a04a:	53                   	push   %ebx
 804a04b:	83 ec 24             	sub    $0x24,%esp
 804a04e:	e8 e8 ff ff ff       	call   804a03b <__x86.get_pc_thunk.ax>
 804a053:	05 ad 3f 00 00       	add    $0x3fad,%eax
 804a058:	83 ec 0c             	sub    $0xc,%esp
 804a05b:	8d 55 d8             	lea    -0x28(%ebp),%edx
 804a05e:	52                   	push   %edx
 804a05f:	89 c3                	mov    %eax,%ebx
 804a061:	e8 25 f9 ff ff       	call   804998b <Gets>
 804a066:	83 c4 10             	add    $0x10,%esp
 804a069:	b8 01 00 00 00       	mov    $0x1,%eax
 804a06e:	8b 5d fc             	mov    -0x4(%ebp),%ebx
 804a071:	c9                   	leave  
 804a072:	c3                   	ret    

0804a073 <getbufn>:
 804a073:	f3 0f 1e fb          	endbr32 
 804a077:	55                   	push   %ebp
 804a078:	89 e5                	mov    %esp,%ebp
 804a07a:	53                   	push   %ebx
 804a07b:	81 ec 04 02 00 00    	sub    $0x204,%esp
 804a081:	e8 b5 ff ff ff       	call   804a03b <__x86.get_pc_thunk.ax>
 804a086:	05 7a 3f 00 00       	add    $0x3f7a,%eax
 804a08b:	83 ec 0c             	sub    $0xc,%esp
 804a08e:	8d 95 f8 fd ff ff    	lea    -0x208(%ebp),%edx
 804a094:	52                   	push   %edx
 804a095:	89 c3                	mov    %eax,%ebx
 804a097:	e8 ef f8 ff ff       	call   804998b <Gets>
 804a09c:	83 c4 10             	add    $0x10,%esp
 804a09f:	b8 01 00 00 00       	mov    $0x1,%eax
 804a0a4:	8b 5d fc             	mov    -0x4(%ebp),%ebx
 804a0a7:	c9                   	leave  
 804a0a8:	c3                   	ret    

0804a0a9 <initialize_bomb>:
 804a0a9:	f3 0f 1e fb          	endbr32 
 804a0ad:	55                   	push   %ebp
 804a0ae:	89 e5                	mov    %esp,%ebp
 804a0b0:	53                   	push   %ebx
 804a0b1:	81 ec 00 10 00 00    	sub    $0x1000,%esp
 804a0b7:	83 0c 24 00          	orl    $0x0,(%esp)
 804a0bb:	81 ec 00 10 00 00    	sub    $0x1000,%esp
 804a0c1:	83 0c 24 00          	orl    $0x0,(%esp)
 804a0c5:	81 ec 14 04 00 00    	sub    $0x414,%esp
 804a0cb:	e8 40 f4 ff ff       	call   8049510 <__x86.get_pc_thunk.bx>
 804a0d0:	81 c3 30 3f 00 00    	add    $0x3f30,%ebx
 804a0d6:	65 a1 14 00 00 00    	mov    %gs:0x14,%eax
 804a0dc:	89 45 f4             	mov    %eax,-0xc(%ebp)
 804a0df:	31 c0                	xor    %eax,%eax
 804a0e1:	c7 85 f0 db ff ff 00 	movl   $0x0,-0x2410(%ebp)
 804a0e8:	00 00 00 
 804a0eb:	c7 c0 08 e1 04 08    	mov    $0x804e108,%eax
 804a0f1:	8b 00                	mov    (%eax),%eax
 804a0f3:	85 c0                	test   %eax,%eax
 804a0f5:	74 0d                	je     804a104 <initialize_bomb+0x5b>
 804a0f7:	83 ec 0c             	sub    $0xc,%esp
 804a0fa:	6a ff                	push   $0xffffffff
 804a0fc:	e8 22 0e 00 00       	call   804af23 <init_timeout>
 804a101:	83 c4 10             	add    $0x10,%esp
 804a104:	c7 c0 04 e1 04 08    	mov    $0x804e104,%eax
 804a10a:	8b 00                	mov    (%eax),%eax
 804a10c:	85 c0                	test   %eax,%eax
 804a10e:	0f 84 e3 00 00 00    	je     804a1f7 <initialize_bomb+0x14e>
 804a114:	83 ec 08             	sub    $0x8,%esp
 804a117:	68 00 04 00 00       	push   $0x400
 804a11c:	8d 85 f4 db ff ff    	lea    -0x240c(%ebp),%eax
 804a122:	50                   	push   %eax
 804a123:	e8 38 f2 ff ff       	call   8049360 <gethostname@plt>
 804a128:	83 c4 10             	add    $0x10,%esp
 804a12b:	85 c0                	test   %eax,%eax
 804a12d:	74 1c                	je     804a14b <initialize_bomb+0xa2>
 804a12f:	83 ec 0c             	sub    $0xc,%esp
 804a132:	8d 83 9c e3 ff ff    	lea    -0x1c64(%ebx),%eax
 804a138:	50                   	push   %eax
 804a139:	e8 32 f2 ff ff       	call   8049370 <puts@plt>
 804a13e:	83 c4 10             	add    $0x10,%esp
 804a141:	83 ec 0c             	sub    $0xc,%esp
 804a144:	6a 08                	push   $0x8
 804a146:	e8 35 f2 ff ff       	call   8049380 <exit@plt>
 804a14b:	c7 85 f0 db ff ff 01 	movl   $0x1,-0x2410(%ebp)
 804a152:	00 00 00 
 804a155:	83 bd f0 db ff ff 00 	cmpl   $0x0,-0x2410(%ebp)
 804a15c:	75 60                	jne    804a1be <initialize_bomb+0x115>
 804a15e:	83 ec 08             	sub    $0x8,%esp
 804a161:	8d 85 f4 db ff ff    	lea    -0x240c(%ebp),%eax
 804a167:	50                   	push   %eax
 804a168:	8d 83 d4 e3 ff ff    	lea    -0x1c2c(%ebx),%eax
 804a16e:	50                   	push   %eax
 804a16f:	e8 3c f1 ff ff       	call   80492b0 <printf@plt>
 804a174:	83 c4 10             	add    $0x10,%esp
 804a177:	c7 85 ec db ff ff 00 	movl   $0x0,-0x2414(%ebp)
 804a17e:	00 00 00 
 804a181:	eb 20                	jmp    804a1a3 <initialize_bomb+0xfa>
 804a183:	8b 85 ec db ff ff    	mov    -0x2414(%ebp),%eax
 804a189:	8b 84 83 60 01 00 00 	mov    0x160(%ebx,%eax,4),%eax
 804a190:	83 ec 0c             	sub    $0xc,%esp
 804a193:	50                   	push   %eax
 804a194:	e8 d7 f1 ff ff       	call   8049370 <puts@plt>
 804a199:	83 c4 10             	add    $0x10,%esp
 804a19c:	83 85 ec db ff ff 01 	addl   $0x1,-0x2414(%ebp)
 804a1a3:	8b 85 ec db ff ff    	mov    -0x2414(%ebp),%eax
 804a1a9:	8b 84 83 60 01 00 00 	mov    0x160(%ebx,%eax,4),%eax
 804a1b0:	85 c0                	test   %eax,%eax
 804a1b2:	75 cf                	jne    804a183 <initialize_bomb+0xda>
 804a1b4:	83 ec 0c             	sub    $0xc,%esp
 804a1b7:	6a 08                	push   $0x8
 804a1b9:	e8 c2 f1 ff ff       	call   8049380 <exit@plt>
 804a1be:	83 ec 0c             	sub    $0xc,%esp
 804a1c1:	8d 85 f4 df ff ff    	lea    -0x200c(%ebp),%eax
 804a1c7:	50                   	push   %eax
 804a1c8:	e8 aa 0d 00 00       	call   804af77 <init_driver>
 804a1cd:	83 c4 10             	add    $0x10,%esp
 804a1d0:	85 c0                	test   %eax,%eax
 804a1d2:	79 23                	jns    804a1f7 <initialize_bomb+0x14e>
 804a1d4:	83 ec 08             	sub    $0x8,%esp
 804a1d7:	8d 85 f4 df ff ff    	lea    -0x200c(%ebp),%eax
 804a1dd:	50                   	push   %eax
 804a1de:	8d 83 0f e4 ff ff    	lea    -0x1bf1(%ebx),%eax
 804a1e4:	50                   	push   %eax
 804a1e5:	e8 c6 f0 ff ff       	call   80492b0 <printf@plt>
 804a1ea:	83 c4 10             	add    $0x10,%esp
 804a1ed:	83 ec 0c             	sub    $0xc,%esp
 804a1f0:	6a 08                	push   $0x8
 804a1f2:	e8 89 f1 ff ff       	call   8049380 <exit@plt>
 804a1f7:	90                   	nop
 804a1f8:	8b 45 f4             	mov    -0xc(%ebp),%eax
 804a1fb:	65 33 05 14 00 00 00 	xor    %gs:0x14,%eax
 804a202:	74 05                	je     804a209 <initialize_bomb+0x160>
 804a204:	e8 77 11 00 00       	call   804b380 <__stack_chk_fail_local>
 804a209:	8b 5d fc             	mov    -0x4(%ebp),%ebx
 804a20c:	c9                   	leave  
 804a20d:	c3                   	ret    

0804a20e <validate>:
 804a20e:	f3 0f 1e fb          	endbr32 
 804a212:	55                   	push   %ebp
 804a213:	89 e5                	mov    %esp,%ebp
 804a215:	53                   	push   %ebx
 804a216:	8d 84 24 00 c0 ff ff 	lea    -0x4000(%esp),%eax
 804a21d:	81 ec 00 10 00 00    	sub    $0x1000,%esp
 804a223:	83 0c 24 00          	orl    $0x0,(%esp)
 804a227:	39 c4                	cmp    %eax,%esp
 804a229:	75 f2                	jne    804a21d <validate+0xf>
 804a22b:	83 ec 14             	sub    $0x14,%esp
 804a22e:	e8 dd f2 ff ff       	call   8049510 <__x86.get_pc_thunk.bx>
 804a233:	81 c3 cd 3d 00 00    	add    $0x3dcd,%ebx
 804a239:	65 a1 14 00 00 00    	mov    %gs:0x14,%eax
 804a23f:	89 45 f4             	mov    %eax,-0xc(%ebp)
 804a242:	31 c0                	xor    %eax,%eax
 804a244:	c7 c0 00 e1 04 08    	mov    $0x804e100,%eax
 804a24a:	8b 00                	mov    (%eax),%eax
 804a24c:	85 c0                	test   %eax,%eax
 804a24e:	75 17                	jne    804a267 <validate+0x59>
 804a250:	83 ec 0c             	sub    $0xc,%esp
 804a253:	8d 83 24 e4 ff ff    	lea    -0x1bdc(%ebx),%eax
 804a259:	50                   	push   %eax
 804a25a:	e8 11 f1 ff ff       	call   8049370 <puts@plt>
 804a25f:	83 c4 10             	add    $0x10,%esp
 804a262:	e9 5b 01 00 00       	jmp    804a3c2 <validate+0x1b4>
 804a267:	83 7d 08 00          	cmpl   $0x0,0x8(%ebp)
 804a26b:	78 06                	js     804a273 <validate+0x65>
 804a26d:	83 7d 08 05          	cmpl   $0x5,0x8(%ebp)
 804a271:	7e 17                	jle    804a28a <validate+0x7c>
 804a273:	83 ec 0c             	sub    $0xc,%esp
 804a276:	8d 83 50 e4 ff ff    	lea    -0x1bb0(%ebx),%eax
 804a27c:	50                   	push   %eax
 804a27d:	e8 ee f0 ff ff       	call   8049370 <puts@plt>
 804a282:	83 c4 10             	add    $0x10,%esp
 804a285:	e9 38 01 00 00       	jmp    804a3c2 <validate+0x1b4>
 804a28a:	c7 c0 44 e1 04 08    	mov    $0x804e144,%eax
 804a290:	c7 00 01 00 00 00    	movl   $0x1,(%eax)
 804a296:	8b 45 08             	mov    0x8(%ebp),%eax
 804a299:	8b 84 83 b4 00 00 00 	mov    0xb4(%ebx,%eax,4),%eax
 804a2a0:	8d 50 ff             	lea    -0x1(%eax),%edx
 804a2a3:	8b 45 08             	mov    0x8(%ebp),%eax
 804a2a6:	89 94 83 b4 00 00 00 	mov    %edx,0xb4(%ebx,%eax,4)
 804a2ad:	8b 45 08             	mov    0x8(%ebp),%eax
 804a2b0:	8b 84 83 b4 00 00 00 	mov    0xb4(%ebx,%eax,4),%eax
 804a2b7:	85 c0                	test   %eax,%eax
 804a2b9:	7e 17                	jle    804a2d2 <validate+0xc4>
 804a2bb:	83 ec 0c             	sub    $0xc,%esp
 804a2be:	8d 83 76 e4 ff ff    	lea    -0x1b8a(%ebx),%eax
 804a2c4:	50                   	push   %eax
 804a2c5:	e8 a6 f0 ff ff       	call   8049370 <puts@plt>
 804a2ca:	83 c4 10             	add    $0x10,%esp
 804a2cd:	e9 f0 00 00 00       	jmp    804a3c2 <validate+0x1b4>
 804a2d2:	83 ec 0c             	sub    $0xc,%esp
 804a2d5:	8d 83 81 e4 ff ff    	lea    -0x1b7f(%ebx),%eax
 804a2db:	50                   	push   %eax
 804a2dc:	e8 8f f0 ff ff       	call   8049370 <puts@plt>
 804a2e1:	83 c4 10             	add    $0x10,%esp
 804a2e4:	c7 c0 04 e1 04 08    	mov    $0x804e104,%eax
 804a2ea:	8b 00                	mov    (%eax),%eax
 804a2ec:	85 c0                	test   %eax,%eax
 804a2ee:	0f 84 bc 00 00 00    	je     804a3b0 <validate+0x1a2>
 804a2f4:	83 ec 0c             	sub    $0xc,%esp
 804a2f7:	c7 c0 80 f1 04 08    	mov    $0x804f180,%eax
 804a2fd:	50                   	push   %eax
 804a2fe:	e8 ad f0 ff ff       	call   80493b0 <strlen@plt>
 804a303:	83 c4 10             	add    $0x10,%esp
 804a306:	83 c0 20             	add    $0x20,%eax
 804a309:	3d 00 20 00 00       	cmp    $0x2000,%eax
 804a30e:	76 17                	jbe    804a327 <validate+0x119>
 804a310:	83 ec 0c             	sub    $0xc,%esp
 804a313:	8d 83 88 e4 ff ff    	lea    -0x1b78(%ebx),%eax
 804a319:	50                   	push   %eax
 804a31a:	e8 51 f0 ff ff       	call   8049370 <puts@plt>
 804a31f:	83 c4 10             	add    $0x10,%esp
 804a322:	e9 9b 00 00 00       	jmp    804a3c2 <validate+0x1b4>
 804a327:	c7 c0 10 e1 04 08    	mov    $0x804e110,%eax
 804a32d:	8b 00                	mov    (%eax),%eax
 804a32f:	83 ec 0c             	sub    $0xc,%esp
 804a332:	c7 c2 80 f1 04 08    	mov    $0x804f180,%edx
 804a338:	52                   	push   %edx
 804a339:	50                   	push   %eax
 804a33a:	ff 75 08             	pushl  0x8(%ebp)
 804a33d:	8d 83 bf e4 ff ff    	lea    -0x1b41(%ebx),%eax
 804a343:	50                   	push   %eax
 804a344:	8d 85 f4 bf ff ff    	lea    -0x400c(%ebp),%eax
 804a34a:	50                   	push   %eax
 804a34b:	e8 f0 f0 ff ff       	call   8049440 <sprintf@plt>
 804a350:	83 c4 20             	add    $0x20,%esp
 804a353:	c7 c0 00 e1 04 08    	mov    $0x804e100,%eax
 804a359:	8b 00                	mov    (%eax),%eax
 804a35b:	8d 95 f4 df ff ff    	lea    -0x200c(%ebp),%edx
 804a361:	52                   	push   %edx
 804a362:	6a 00                	push   $0x0
 804a364:	8d 95 f4 bf ff ff    	lea    -0x400c(%ebp),%edx
 804a36a:	52                   	push   %edx
 804a36b:	50                   	push   %eax
 804a36c:	e8 f4 0d 00 00       	call   804b165 <driver_post>
 804a371:	83 c4 10             	add    $0x10,%esp
 804a374:	89 85 f0 bf ff ff    	mov    %eax,-0x4010(%ebp)
 804a37a:	83 bd f0 bf ff ff 00 	cmpl   $0x0,-0x4010(%ebp)
 804a381:	75 14                	jne    804a397 <validate+0x189>
 804a383:	83 ec 0c             	sub    $0xc,%esp
 804a386:	8d 83 c8 e4 ff ff    	lea    -0x1b38(%ebx),%eax
 804a38c:	50                   	push   %eax
 804a38d:	e8 de ef ff ff       	call   8049370 <puts@plt>
 804a392:	83 c4 10             	add    $0x10,%esp
 804a395:	eb 19                	jmp    804a3b0 <validate+0x1a2>
 804a397:	83 ec 08             	sub    $0x8,%esp
 804a39a:	8d 85 f4 df ff ff    	lea    -0x200c(%ebp),%eax
 804a3a0:	50                   	push   %eax
 804a3a1:	8d 83 f8 e4 ff ff    	lea    -0x1b08(%ebx),%eax
 804a3a7:	50                   	push   %eax
 804a3a8:	e8 03 ef ff ff       	call   80492b0 <printf@plt>
 804a3ad:	83 c4 10             	add    $0x10,%esp
 804a3b0:	83 ec 0c             	sub    $0xc,%esp
 804a3b3:	8d 83 36 e5 ff ff    	lea    -0x1aca(%ebx),%eax
 804a3b9:	50                   	push   %eax
 804a3ba:	e8 b1 ef ff ff       	call   8049370 <puts@plt>
 804a3bf:	83 c4 10             	add    $0x10,%esp
 804a3c2:	8b 45 f4             	mov    -0xc(%ebp),%eax
 804a3c5:	65 33 05 14 00 00 00 	xor    %gs:0x14,%eax
 804a3cc:	74 05                	je     804a3d3 <validate+0x1c5>
 804a3ce:	e8 ad 0f 00 00       	call   804b380 <__stack_chk_fail_local>
 804a3d3:	8b 5d fc             	mov    -0x4(%ebp),%ebx
 804a3d6:	c9                   	leave  
 804a3d7:	c3                   	ret    

0804a3d8 <sigalrm_handler>:
 804a3d8:	f3 0f 1e fb          	endbr32 
 804a3dc:	55                   	push   %ebp
 804a3dd:	89 e5                	mov    %esp,%ebp
 804a3df:	53                   	push   %ebx
 804a3e0:	83 ec 04             	sub    $0x4,%esp
 804a3e3:	e8 28 f1 ff ff       	call   8049510 <__x86.get_pc_thunk.bx>
 804a3e8:	81 c3 18 3c 00 00    	add    $0x3c18,%ebx
 804a3ee:	83 ec 08             	sub    $0x8,%esp
 804a3f1:	6a 02                	push   $0x2
 804a3f3:	8d 83 40 e5 ff ff    	lea    -0x1ac0(%ebx),%eax
 804a3f9:	50                   	push   %eax
 804a3fa:	e8 b1 ee ff ff       	call   80492b0 <printf@plt>
 804a3ff:	83 c4 10             	add    $0x10,%esp
 804a402:	83 ec 0c             	sub    $0xc,%esp
 804a405:	6a 01                	push   $0x1
 804a407:	e8 74 ef ff ff       	call   8049380 <exit@plt>

0804a40c <rio_readinitb>:
 804a40c:	f3 0f 1e fb          	endbr32 
 804a410:	55                   	push   %ebp
 804a411:	89 e5                	mov    %esp,%ebp
 804a413:	e8 23 fc ff ff       	call   804a03b <__x86.get_pc_thunk.ax>
 804a418:	05 e8 3b 00 00       	add    $0x3be8,%eax
 804a41d:	8b 45 08             	mov    0x8(%ebp),%eax
 804a420:	8b 55 0c             	mov    0xc(%ebp),%edx
 804a423:	89 10                	mov    %edx,(%eax)
 804a425:	8b 45 08             	mov    0x8(%ebp),%eax
 804a428:	c7 40 04 00 00 00 00 	movl   $0x0,0x4(%eax)
 804a42f:	8b 45 08             	mov    0x8(%ebp),%eax
 804a432:	8d 50 0c             	lea    0xc(%eax),%edx
 804a435:	8b 45 08             	mov    0x8(%ebp),%eax
 804a438:	89 50 08             	mov    %edx,0x8(%eax)
 804a43b:	90                   	nop
 804a43c:	5d                   	pop    %ebp
 804a43d:	c3                   	ret    

0804a43e <rio_read>:
 804a43e:	f3 0f 1e fb          	endbr32 
 804a442:	55                   	push   %ebp
 804a443:	89 e5                	mov    %esp,%ebp
 804a445:	53                   	push   %ebx
 804a446:	83 ec 14             	sub    $0x14,%esp
 804a449:	e8 c2 f0 ff ff       	call   8049510 <__x86.get_pc_thunk.bx>
 804a44e:	81 c3 b2 3b 00 00    	add    $0x3bb2,%ebx
 804a454:	eb 5d                	jmp    804a4b3 <rio_read+0x75>
 804a456:	8b 45 08             	mov    0x8(%ebp),%eax
 804a459:	8d 50 0c             	lea    0xc(%eax),%edx
 804a45c:	8b 45 08             	mov    0x8(%ebp),%eax
 804a45f:	8b 00                	mov    (%eax),%eax
 804a461:	83 ec 04             	sub    $0x4,%esp
 804a464:	68 00 20 00 00       	push   $0x2000
 804a469:	52                   	push   %edx
 804a46a:	50                   	push   %eax
 804a46b:	e8 20 ee ff ff       	call   8049290 <read@plt>
 804a470:	83 c4 10             	add    $0x10,%esp
 804a473:	8b 55 08             	mov    0x8(%ebp),%edx
 804a476:	89 42 04             	mov    %eax,0x4(%edx)
 804a479:	8b 45 08             	mov    0x8(%ebp),%eax
 804a47c:	8b 40 04             	mov    0x4(%eax),%eax
 804a47f:	85 c0                	test   %eax,%eax
 804a481:	79 13                	jns    804a496 <rio_read+0x58>
 804a483:	e8 88 ef ff ff       	call   8049410 <__errno_location@plt>
 804a488:	8b 00                	mov    (%eax),%eax
 804a48a:	83 f8 04             	cmp    $0x4,%eax
 804a48d:	74 24                	je     804a4b3 <rio_read+0x75>
 804a48f:	b8 ff ff ff ff       	mov    $0xffffffff,%eax
 804a494:	eb 7f                	jmp    804a515 <rio_read+0xd7>
 804a496:	8b 45 08             	mov    0x8(%ebp),%eax
 804a499:	8b 40 04             	mov    0x4(%eax),%eax
 804a49c:	85 c0                	test   %eax,%eax
 804a49e:	75 07                	jne    804a4a7 <rio_read+0x69>
 804a4a0:	b8 00 00 00 00       	mov    $0x0,%eax
 804a4a5:	eb 6e                	jmp    804a515 <rio_read+0xd7>
 804a4a7:	8b 45 08             	mov    0x8(%ebp),%eax
 804a4aa:	8d 50 0c             	lea    0xc(%eax),%edx
 804a4ad:	8b 45 08             	mov    0x8(%ebp),%eax
 804a4b0:	89 50 08             	mov    %edx,0x8(%eax)
 804a4b3:	8b 45 08             	mov    0x8(%ebp),%eax
 804a4b6:	8b 40 04             	mov    0x4(%eax),%eax
 804a4b9:	85 c0                	test   %eax,%eax
 804a4bb:	7e 99                	jle    804a456 <rio_read+0x18>
 804a4bd:	8b 45 10             	mov    0x10(%ebp),%eax
 804a4c0:	89 45 f4             	mov    %eax,-0xc(%ebp)
 804a4c3:	8b 45 08             	mov    0x8(%ebp),%eax
 804a4c6:	8b 40 04             	mov    0x4(%eax),%eax
 804a4c9:	39 45 10             	cmp    %eax,0x10(%ebp)
 804a4cc:	76 09                	jbe    804a4d7 <rio_read+0x99>
 804a4ce:	8b 45 08             	mov    0x8(%ebp),%eax
 804a4d1:	8b 40 04             	mov    0x4(%eax),%eax
 804a4d4:	89 45 f4             	mov    %eax,-0xc(%ebp)
 804a4d7:	8b 55 f4             	mov    -0xc(%ebp),%edx
 804a4da:	8b 45 08             	mov    0x8(%ebp),%eax
 804a4dd:	8b 40 08             	mov    0x8(%eax),%eax
 804a4e0:	83 ec 04             	sub    $0x4,%esp
 804a4e3:	52                   	push   %edx
 804a4e4:	50                   	push   %eax
 804a4e5:	ff 75 0c             	pushl  0xc(%ebp)
 804a4e8:	e8 f3 ed ff ff       	call   80492e0 <memcpy@plt>
 804a4ed:	83 c4 10             	add    $0x10,%esp
 804a4f0:	8b 45 08             	mov    0x8(%ebp),%eax
 804a4f3:	8b 50 08             	mov    0x8(%eax),%edx
 804a4f6:	8b 45 f4             	mov    -0xc(%ebp),%eax
 804a4f9:	01 c2                	add    %eax,%edx
 804a4fb:	8b 45 08             	mov    0x8(%ebp),%eax
 804a4fe:	89 50 08             	mov    %edx,0x8(%eax)
 804a501:	8b 45 08             	mov    0x8(%ebp),%eax
 804a504:	8b 40 04             	mov    0x4(%eax),%eax
 804a507:	2b 45 f4             	sub    -0xc(%ebp),%eax
 804a50a:	89 c2                	mov    %eax,%edx
 804a50c:	8b 45 08             	mov    0x8(%ebp),%eax
 804a50f:	89 50 04             	mov    %edx,0x4(%eax)
 804a512:	8b 45 f4             	mov    -0xc(%ebp),%eax
 804a515:	8b 5d fc             	mov    -0x4(%ebp),%ebx
 804a518:	c9                   	leave  
 804a519:	c3                   	ret    

0804a51a <rio_readlineb>:
 804a51a:	f3 0f 1e fb          	endbr32 
 804a51e:	55                   	push   %ebp
 804a51f:	89 e5                	mov    %esp,%ebp
 804a521:	83 ec 38             	sub    $0x38,%esp
 804a524:	e8 12 fb ff ff       	call   804a03b <__x86.get_pc_thunk.ax>
 804a529:	05 d7 3a 00 00       	add    $0x3ad7,%eax
 804a52e:	8b 45 08             	mov    0x8(%ebp),%eax
 804a531:	89 45 d4             	mov    %eax,-0x2c(%ebp)
 804a534:	8b 45 0c             	mov    0xc(%ebp),%eax
 804a537:	89 45 d0             	mov    %eax,-0x30(%ebp)
 804a53a:	65 a1 14 00 00 00    	mov    %gs:0x14,%eax
 804a540:	89 45 f4             	mov    %eax,-0xc(%ebp)
 804a543:	31 c0                	xor    %eax,%eax
 804a545:	8b 45 d0             	mov    -0x30(%ebp),%eax
 804a548:	89 45 ec             	mov    %eax,-0x14(%ebp)
 804a54b:	c7 45 e8 01 00 00 00 	movl   $0x1,-0x18(%ebp)
 804a552:	eb 54                	jmp    804a5a8 <rio_readlineb+0x8e>
 804a554:	83 ec 04             	sub    $0x4,%esp
 804a557:	6a 01                	push   $0x1
 804a559:	8d 45 e7             	lea    -0x19(%ebp),%eax
 804a55c:	50                   	push   %eax
 804a55d:	ff 75 d4             	pushl  -0x2c(%ebp)
 804a560:	e8 d9 fe ff ff       	call   804a43e <rio_read>
 804a565:	83 c4 10             	add    $0x10,%esp
 804a568:	89 45 f0             	mov    %eax,-0x10(%ebp)
 804a56b:	83 7d f0 01          	cmpl   $0x1,-0x10(%ebp)
 804a56f:	75 19                	jne    804a58a <rio_readlineb+0x70>
 804a571:	8b 45 ec             	mov    -0x14(%ebp),%eax
 804a574:	8d 50 01             	lea    0x1(%eax),%edx
 804a577:	89 55 ec             	mov    %edx,-0x14(%ebp)
 804a57a:	0f b6 55 e7          	movzbl -0x19(%ebp),%edx
 804a57e:	88 10                	mov    %dl,(%eax)
 804a580:	0f b6 45 e7          	movzbl -0x19(%ebp),%eax
 804a584:	3c 0a                	cmp    $0xa,%al
 804a586:	75 1c                	jne    804a5a4 <rio_readlineb+0x8a>
 804a588:	eb 29                	jmp    804a5b3 <rio_readlineb+0x99>
 804a58a:	83 7d f0 00          	cmpl   $0x0,-0x10(%ebp)
 804a58e:	75 0d                	jne    804a59d <rio_readlineb+0x83>
 804a590:	83 7d e8 01          	cmpl   $0x1,-0x18(%ebp)
 804a594:	75 1c                	jne    804a5b2 <rio_readlineb+0x98>
 804a596:	b8 00 00 00 00       	mov    $0x0,%eax
 804a59b:	eb 1f                	jmp    804a5bc <rio_readlineb+0xa2>
 804a59d:	b8 ff ff ff ff       	mov    $0xffffffff,%eax
 804a5a2:	eb 18                	jmp    804a5bc <rio_readlineb+0xa2>
 804a5a4:	83 45 e8 01          	addl   $0x1,-0x18(%ebp)
 804a5a8:	8b 45 e8             	mov    -0x18(%ebp),%eax
 804a5ab:	39 45 10             	cmp    %eax,0x10(%ebp)
 804a5ae:	77 a4                	ja     804a554 <rio_readlineb+0x3a>
 804a5b0:	eb 01                	jmp    804a5b3 <rio_readlineb+0x99>
 804a5b2:	90                   	nop
 804a5b3:	8b 45 ec             	mov    -0x14(%ebp),%eax
 804a5b6:	c6 00 00             	movb   $0x0,(%eax)
 804a5b9:	8b 45 e8             	mov    -0x18(%ebp),%eax
 804a5bc:	8b 4d f4             	mov    -0xc(%ebp),%ecx
 804a5bf:	65 33 0d 14 00 00 00 	xor    %gs:0x14,%ecx
 804a5c6:	74 05                	je     804a5cd <rio_readlineb+0xb3>
 804a5c8:	e8 b3 0d 00 00       	call   804b380 <__stack_chk_fail_local>
 804a5cd:	c9                   	leave  
 804a5ce:	c3                   	ret    

0804a5cf <rio_writen>:
 804a5cf:	f3 0f 1e fb          	endbr32 
 804a5d3:	55                   	push   %ebp
 804a5d4:	89 e5                	mov    %esp,%ebp
 804a5d6:	53                   	push   %ebx
 804a5d7:	83 ec 14             	sub    $0x14,%esp
 804a5da:	e8 31 ef ff ff       	call   8049510 <__x86.get_pc_thunk.bx>
 804a5df:	81 c3 21 3a 00 00    	add    $0x3a21,%ebx
 804a5e5:	8b 45 10             	mov    0x10(%ebp),%eax
 804a5e8:	89 45 ec             	mov    %eax,-0x14(%ebp)
 804a5eb:	8b 45 0c             	mov    0xc(%ebp),%eax
 804a5ee:	89 45 f4             	mov    %eax,-0xc(%ebp)
 804a5f1:	eb 45                	jmp    804a638 <rio_writen+0x69>
 804a5f3:	83 ec 04             	sub    $0x4,%esp
 804a5f6:	ff 75 ec             	pushl  -0x14(%ebp)
 804a5f9:	ff 75 f4             	pushl  -0xc(%ebp)
 804a5fc:	ff 75 08             	pushl  0x8(%ebp)
 804a5ff:	e8 cc ed ff ff       	call   80493d0 <write@plt>
 804a604:	83 c4 10             	add    $0x10,%esp
 804a607:	89 45 f0             	mov    %eax,-0x10(%ebp)
 804a60a:	83 7d f0 00          	cmpl   $0x0,-0x10(%ebp)
 804a60e:	7f 1c                	jg     804a62c <rio_writen+0x5d>
 804a610:	e8 fb ed ff ff       	call   8049410 <__errno_location@plt>
 804a615:	8b 00                	mov    (%eax),%eax
 804a617:	83 f8 04             	cmp    $0x4,%eax
 804a61a:	75 09                	jne    804a625 <rio_writen+0x56>
 804a61c:	c7 45 f0 00 00 00 00 	movl   $0x0,-0x10(%ebp)
 804a623:	eb 07                	jmp    804a62c <rio_writen+0x5d>
 804a625:	b8 ff ff ff ff       	mov    $0xffffffff,%eax
 804a62a:	eb 15                	jmp    804a641 <rio_writen+0x72>
 804a62c:	8b 45 f0             	mov    -0x10(%ebp),%eax
 804a62f:	29 45 ec             	sub    %eax,-0x14(%ebp)
 804a632:	8b 45 f0             	mov    -0x10(%ebp),%eax
 804a635:	01 45 f4             	add    %eax,-0xc(%ebp)
 804a638:	83 7d ec 00          	cmpl   $0x0,-0x14(%ebp)
 804a63c:	75 b5                	jne    804a5f3 <rio_writen+0x24>
 804a63e:	8b 45 10             	mov    0x10(%ebp),%eax
 804a641:	8b 5d fc             	mov    -0x4(%ebp),%ebx
 804a644:	c9                   	leave  
 804a645:	c3                   	ret    

0804a646 <urlencode>:
 804a646:	f3 0f 1e fb          	endbr32 
 804a64a:	55                   	push   %ebp
 804a64b:	89 e5                	mov    %esp,%ebp
 804a64d:	53                   	push   %ebx
 804a64e:	83 ec 24             	sub    $0x24,%esp
 804a651:	e8 ba ee ff ff       	call   8049510 <__x86.get_pc_thunk.bx>
 804a656:	81 c3 aa 39 00 00    	add    $0x39aa,%ebx
 804a65c:	8b 45 08             	mov    0x8(%ebp),%eax
 804a65f:	89 45 e4             	mov    %eax,-0x1c(%ebp)
 804a662:	8b 45 0c             	mov    0xc(%ebp),%eax
 804a665:	89 45 e0             	mov    %eax,-0x20(%ebp)
 804a668:	65 a1 14 00 00 00    	mov    %gs:0x14,%eax
 804a66e:	89 45 f4             	mov    %eax,-0xc(%ebp)
 804a671:	31 c0                	xor    %eax,%eax
 804a673:	83 ec 0c             	sub    $0xc,%esp
 804a676:	ff 75 e4             	pushl  -0x1c(%ebp)
 804a679:	e8 32 ed ff ff       	call   80493b0 <strlen@plt>
 804a67e:	83 c4 10             	add    $0x10,%esp
 804a681:	89 45 e8             	mov    %eax,-0x18(%ebp)
 804a684:	e9 10 01 00 00       	jmp    804a799 <urlencode+0x153>
 804a689:	8b 45 e4             	mov    -0x1c(%ebp),%eax
 804a68c:	0f b6 00             	movzbl (%eax),%eax
 804a68f:	3c 2a                	cmp    $0x2a,%al
 804a691:	74 5a                	je     804a6ed <urlencode+0xa7>
 804a693:	8b 45 e4             	mov    -0x1c(%ebp),%eax
 804a696:	0f b6 00             	movzbl (%eax),%eax
 804a699:	3c 2d                	cmp    $0x2d,%al
 804a69b:	74 50                	je     804a6ed <urlencode+0xa7>
 804a69d:	8b 45 e4             	mov    -0x1c(%ebp),%eax
 804a6a0:	0f b6 00             	movzbl (%eax),%eax
 804a6a3:	3c 2e                	cmp    $0x2e,%al
 804a6a5:	74 46                	je     804a6ed <urlencode+0xa7>
 804a6a7:	8b 45 e4             	mov    -0x1c(%ebp),%eax
 804a6aa:	0f b6 00             	movzbl (%eax),%eax
 804a6ad:	3c 5f                	cmp    $0x5f,%al
 804a6af:	74 3c                	je     804a6ed <urlencode+0xa7>
 804a6b1:	8b 45 e4             	mov    -0x1c(%ebp),%eax
 804a6b4:	0f b6 00             	movzbl (%eax),%eax
 804a6b7:	3c 2f                	cmp    $0x2f,%al
 804a6b9:	76 0a                	jbe    804a6c5 <urlencode+0x7f>
 804a6bb:	8b 45 e4             	mov    -0x1c(%ebp),%eax
 804a6be:	0f b6 00             	movzbl (%eax),%eax
 804a6c1:	3c 39                	cmp    $0x39,%al
 804a6c3:	76 28                	jbe    804a6ed <urlencode+0xa7>
 804a6c5:	8b 45 e4             	mov    -0x1c(%ebp),%eax
 804a6c8:	0f b6 00             	movzbl (%eax),%eax
 804a6cb:	3c 40                	cmp    $0x40,%al
 804a6cd:	76 0a                	jbe    804a6d9 <urlencode+0x93>
 804a6cf:	8b 45 e4             	mov    -0x1c(%ebp),%eax
 804a6d2:	0f b6 00             	movzbl (%eax),%eax
 804a6d5:	3c 5a                	cmp    $0x5a,%al
 804a6d7:	76 14                	jbe    804a6ed <urlencode+0xa7>
 804a6d9:	8b 45 e4             	mov    -0x1c(%ebp),%eax
 804a6dc:	0f b6 00             	movzbl (%eax),%eax
 804a6df:	3c 60                	cmp    $0x60,%al
 804a6e1:	76 20                	jbe    804a703 <urlencode+0xbd>
 804a6e3:	8b 45 e4             	mov    -0x1c(%ebp),%eax
 804a6e6:	0f b6 00             	movzbl (%eax),%eax
 804a6e9:	3c 7a                	cmp    $0x7a,%al
 804a6eb:	77 16                	ja     804a703 <urlencode+0xbd>
 804a6ed:	8b 45 e0             	mov    -0x20(%ebp),%eax
 804a6f0:	8d 50 01             	lea    0x1(%eax),%edx
 804a6f3:	89 55 e0             	mov    %edx,-0x20(%ebp)
 804a6f6:	8b 55 e4             	mov    -0x1c(%ebp),%edx
 804a6f9:	0f b6 12             	movzbl (%edx),%edx
 804a6fc:	88 10                	mov    %dl,(%eax)
 804a6fe:	e9 92 00 00 00       	jmp    804a795 <urlencode+0x14f>
 804a703:	8b 45 e4             	mov    -0x1c(%ebp),%eax
 804a706:	0f b6 00             	movzbl (%eax),%eax
 804a709:	3c 20                	cmp    $0x20,%al
 804a70b:	75 0e                	jne    804a71b <urlencode+0xd5>
 804a70d:	8b 45 e0             	mov    -0x20(%ebp),%eax
 804a710:	8d 50 01             	lea    0x1(%eax),%edx
 804a713:	89 55 e0             	mov    %edx,-0x20(%ebp)
 804a716:	c6 00 2b             	movb   $0x2b,(%eax)
 804a719:	eb 7a                	jmp    804a795 <urlencode+0x14f>
 804a71b:	8b 45 e4             	mov    -0x1c(%ebp),%eax
 804a71e:	0f b6 00             	movzbl (%eax),%eax
 804a721:	3c 1f                	cmp    $0x1f,%al
 804a723:	76 0a                	jbe    804a72f <urlencode+0xe9>
 804a725:	8b 45 e4             	mov    -0x1c(%ebp),%eax
 804a728:	0f b6 00             	movzbl (%eax),%eax
 804a72b:	84 c0                	test   %al,%al
 804a72d:	79 0a                	jns    804a739 <urlencode+0xf3>
 804a72f:	8b 45 e4             	mov    -0x1c(%ebp),%eax
 804a732:	0f b6 00             	movzbl (%eax),%eax
 804a735:	3c 09                	cmp    $0x9,%al
 804a737:	75 55                	jne    804a78e <urlencode+0x148>
 804a739:	8b 45 e4             	mov    -0x1c(%ebp),%eax
 804a73c:	0f b6 00             	movzbl (%eax),%eax
 804a73f:	0f b6 c0             	movzbl %al,%eax
 804a742:	83 ec 04             	sub    $0x4,%esp
 804a745:	50                   	push   %eax
 804a746:	8d 83 64 e5 ff ff    	lea    -0x1a9c(%ebx),%eax
 804a74c:	50                   	push   %eax
 804a74d:	8d 45 ec             	lea    -0x14(%ebp),%eax
 804a750:	50                   	push   %eax
 804a751:	e8 ea ec ff ff       	call   8049440 <sprintf@plt>
 804a756:	83 c4 10             	add    $0x10,%esp
 804a759:	0f b6 4d ec          	movzbl -0x14(%ebp),%ecx
 804a75d:	8b 45 e0             	mov    -0x20(%ebp),%eax
 804a760:	8d 50 01             	lea    0x1(%eax),%edx
 804a763:	89 55 e0             	mov    %edx,-0x20(%ebp)
 804a766:	89 ca                	mov    %ecx,%edx
 804a768:	88 10                	mov    %dl,(%eax)
 804a76a:	0f b6 4d ed          	movzbl -0x13(%ebp),%ecx
 804a76e:	8b 45 e0             	mov    -0x20(%ebp),%eax
 804a771:	8d 50 01             	lea    0x1(%eax),%edx
 804a774:	89 55 e0             	mov    %edx,-0x20(%ebp)
 804a777:	89 ca                	mov    %ecx,%edx
 804a779:	88 10                	mov    %dl,(%eax)
 804a77b:	0f b6 4d ee          	movzbl -0x12(%ebp),%ecx
 804a77f:	8b 45 e0             	mov    -0x20(%ebp),%eax
 804a782:	8d 50 01             	lea    0x1(%eax),%edx
 804a785:	89 55 e0             	mov    %edx,-0x20(%ebp)
 804a788:	89 ca                	mov    %ecx,%edx
 804a78a:	88 10                	mov    %dl,(%eax)
 804a78c:	eb 07                	jmp    804a795 <urlencode+0x14f>
 804a78e:	b8 ff ff ff ff       	mov    $0xffffffff,%eax
 804a793:	eb 1a                	jmp    804a7af <urlencode+0x169>
 804a795:	83 45 e4 01          	addl   $0x1,-0x1c(%ebp)
 804a799:	8b 45 e8             	mov    -0x18(%ebp),%eax
 804a79c:	8d 50 ff             	lea    -0x1(%eax),%edx
 804a79f:	89 55 e8             	mov    %edx,-0x18(%ebp)
 804a7a2:	85 c0                	test   %eax,%eax
 804a7a4:	0f 85 df fe ff ff    	jne    804a689 <urlencode+0x43>
 804a7aa:	b8 00 00 00 00       	mov    $0x0,%eax
 804a7af:	8b 4d f4             	mov    -0xc(%ebp),%ecx
 804a7b2:	65 33 0d 14 00 00 00 	xor    %gs:0x14,%ecx
 804a7b9:	74 05                	je     804a7c0 <urlencode+0x17a>
 804a7bb:	e8 c0 0b 00 00       	call   804b380 <__stack_chk_fail_local>
 804a7c0:	8b 5d fc             	mov    -0x4(%ebp),%ebx
 804a7c3:	c9                   	leave  
 804a7c4:	c3                   	ret    

0804a7c5 <submitr>:
 804a7c5:	f3 0f 1e fb          	endbr32 
 804a7c9:	55                   	push   %ebp
 804a7ca:	89 e5                	mov    %esp,%ebp
 804a7cc:	57                   	push   %edi
 804a7cd:	56                   	push   %esi
 804a7ce:	53                   	push   %ebx
 804a7cf:	8d 84 24 00 60 ff ff 	lea    -0xa000(%esp),%eax
 804a7d6:	81 ec 00 10 00 00    	sub    $0x1000,%esp
 804a7dc:	83 0c 24 00          	orl    $0x0,(%esp)
 804a7e0:	39 c4                	cmp    %eax,%esp
 804a7e2:	75 f2                	jne    804a7d6 <submitr+0x11>
 804a7e4:	83 ec 6c             	sub    $0x6c,%esp
 804a7e7:	e8 24 ed ff ff       	call   8049510 <__x86.get_pc_thunk.bx>
 804a7ec:	81 c3 14 38 00 00    	add    $0x3814,%ebx
 804a7f2:	8b 45 08             	mov    0x8(%ebp),%eax
 804a7f5:	89 85 a4 5f ff ff    	mov    %eax,-0xa05c(%ebp)
 804a7fb:	8b 45 10             	mov    0x10(%ebp),%eax
 804a7fe:	89 85 a0 5f ff ff    	mov    %eax,-0xa060(%ebp)
 804a804:	8b 45 14             	mov    0x14(%ebp),%eax
 804a807:	89 85 9c 5f ff ff    	mov    %eax,-0xa064(%ebp)
 804a80d:	8b 45 18             	mov    0x18(%ebp),%eax
 804a810:	89 85 98 5f ff ff    	mov    %eax,-0xa068(%ebp)
 804a816:	8b 45 1c             	mov    0x1c(%ebp),%eax
 804a819:	89 85 94 5f ff ff    	mov    %eax,-0xa06c(%ebp)
 804a81f:	8b 45 20             	mov    0x20(%ebp),%eax
 804a822:	89 85 90 5f ff ff    	mov    %eax,-0xa070(%ebp)
 804a828:	65 a1 14 00 00 00    	mov    %gs:0x14,%eax
 804a82e:	89 45 e4             	mov    %eax,-0x1c(%ebp)
 804a831:	31 c0                	xor    %eax,%eax
 804a833:	c7 85 b4 5f ff ff 00 	movl   $0x0,-0xa04c(%ebp)
 804a83a:	00 00 00 
 804a83d:	83 ec 04             	sub    $0x4,%esp
 804a840:	6a 00                	push   $0x0
 804a842:	6a 01                	push   $0x1
 804a844:	6a 02                	push   $0x2
 804a846:	e8 05 ec ff ff       	call   8049450 <socket@plt>
 804a84b:	83 c4 10             	add    $0x10,%esp
 804a84e:	89 85 b8 5f ff ff    	mov    %eax,-0xa048(%ebp)
 804a854:	83 bd b8 5f ff ff 00 	cmpl   $0x0,-0xa048(%ebp)
 804a85b:	79 54                	jns    804a8b1 <submitr+0xec>
 804a85d:	8b 85 90 5f ff ff    	mov    -0xa070(%ebp),%eax
 804a863:	c7 00 45 72 72 6f    	movl   $0x6f727245,(%eax)
 804a869:	c7 40 04 72 3a 20 43 	movl   $0x43203a72,0x4(%eax)
 804a870:	c7 40 08 6c 69 65 6e 	movl   $0x6e65696c,0x8(%eax)
 804a877:	c7 40 0c 74 20 75 6e 	movl   $0x6e752074,0xc(%eax)
 804a87e:	c7 40 10 61 62 6c 65 	movl   $0x656c6261,0x10(%eax)
 804a885:	c7 40 14 20 74 6f 20 	movl   $0x206f7420,0x14(%eax)
 804a88c:	c7 40 18 63 72 65 61 	movl   $0x61657263,0x18(%eax)
 804a893:	c7 40 1c 74 65 20 73 	movl   $0x73206574,0x1c(%eax)
 804a89a:	c7 40 20 6f 63 6b 65 	movl   $0x656b636f,0x20(%eax)
 804a8a1:	66 c7 40 24 74 00    	movw   $0x74,0x24(%eax)
 804a8a7:	b8 ff ff ff ff       	mov    $0xffffffff,%eax
 804a8ac:	e9 59 06 00 00       	jmp    804af0a <submitr+0x745>
 804a8b1:	83 ec 0c             	sub    $0xc,%esp
 804a8b4:	ff b5 a4 5f ff ff    	pushl  -0xa05c(%ebp)
 804a8ba:	e8 c1 eb ff ff       	call   8049480 <gethostbyname@plt>
 804a8bf:	83 c4 10             	add    $0x10,%esp
 804a8c2:	89 85 bc 5f ff ff    	mov    %eax,-0xa044(%ebp)
 804a8c8:	83 bd bc 5f ff ff 00 	cmpl   $0x0,-0xa044(%ebp)
 804a8cf:	75 39                	jne    804a90a <submitr+0x145>
 804a8d1:	83 ec 04             	sub    $0x4,%esp
 804a8d4:	ff b5 a4 5f ff ff    	pushl  -0xa05c(%ebp)
 804a8da:	8d 83 6c e5 ff ff    	lea    -0x1a94(%ebx),%eax
 804a8e0:	50                   	push   %eax
 804a8e1:	ff b5 90 5f ff ff    	pushl  -0xa070(%ebp)
 804a8e7:	e8 54 eb ff ff       	call   8049440 <sprintf@plt>
 804a8ec:	83 c4 10             	add    $0x10,%esp
 804a8ef:	83 ec 0c             	sub    $0xc,%esp
 804a8f2:	ff b5 b8 5f ff ff    	pushl  -0xa048(%ebp)
 804a8f8:	e8 a3 eb ff ff       	call   80494a0 <close@plt>
 804a8fd:	83 c4 10             	add    $0x10,%esp
 804a900:	b8 ff ff ff ff       	mov    $0xffffffff,%eax
 804a905:	e9 00 06 00 00       	jmp    804af0a <submitr+0x745>
 804a90a:	8d 85 c8 5f ff ff    	lea    -0xa038(%ebp),%eax
 804a910:	c7 00 00 00 00 00    	movl   $0x0,(%eax)
 804a916:	c7 40 04 00 00 00 00 	movl   $0x0,0x4(%eax)
 804a91d:	c7 40 08 00 00 00 00 	movl   $0x0,0x8(%eax)
 804a924:	c7 40 0c 00 00 00 00 	movl   $0x0,0xc(%eax)
 804a92b:	66 c7 85 c8 5f ff ff 	movw   $0x2,-0xa038(%ebp)
 804a932:	02 00 
 804a934:	8b 85 bc 5f ff ff    	mov    -0xa044(%ebp),%eax
 804a93a:	8b 40 0c             	mov    0xc(%eax),%eax
 804a93d:	89 c2                	mov    %eax,%edx
 804a93f:	8b 85 bc 5f ff ff    	mov    -0xa044(%ebp),%eax
 804a945:	8b 40 10             	mov    0x10(%eax),%eax
 804a948:	8b 00                	mov    (%eax),%eax
 804a94a:	83 ec 04             	sub    $0x4,%esp
 804a94d:	52                   	push   %edx
 804a94e:	50                   	push   %eax
 804a94f:	8d 85 c8 5f ff ff    	lea    -0xa038(%ebp),%eax
 804a955:	83 c0 04             	add    $0x4,%eax
 804a958:	50                   	push   %eax
 804a959:	e8 62 e9 ff ff       	call   80492c0 <memmove@plt>
 804a95e:	83 c4 10             	add    $0x10,%esp
 804a961:	8b 45 0c             	mov    0xc(%ebp),%eax
 804a964:	0f b7 c0             	movzwl %ax,%eax
 804a967:	83 ec 0c             	sub    $0xc,%esp
 804a96a:	50                   	push   %eax
 804a96b:	e8 b0 e9 ff ff       	call   8049320 <htons@plt>
 804a970:	83 c4 10             	add    $0x10,%esp
 804a973:	66 89 85 ca 5f ff ff 	mov    %ax,-0xa036(%ebp)
 804a97a:	83 ec 04             	sub    $0x4,%esp
 804a97d:	6a 10                	push   $0x10
 804a97f:	8d 85 c8 5f ff ff    	lea    -0xa038(%ebp),%eax
 804a985:	50                   	push   %eax
 804a986:	ff b5 b8 5f ff ff    	pushl  -0xa048(%ebp)
 804a98c:	e8 ff ea ff ff       	call   8049490 <connect@plt>
 804a991:	83 c4 10             	add    $0x10,%esp
 804a994:	85 c0                	test   %eax,%eax
 804a996:	79 39                	jns    804a9d1 <submitr+0x20c>
 804a998:	83 ec 04             	sub    $0x4,%esp
 804a99b:	ff b5 a4 5f ff ff    	pushl  -0xa05c(%ebp)
 804a9a1:	8d 83 98 e5 ff ff    	lea    -0x1a68(%ebx),%eax
 804a9a7:	50                   	push   %eax
 804a9a8:	ff b5 90 5f ff ff    	pushl  -0xa070(%ebp)
 804a9ae:	e8 8d ea ff ff       	call   8049440 <sprintf@plt>
 804a9b3:	83 c4 10             	add    $0x10,%esp
 804a9b6:	83 ec 0c             	sub    $0xc,%esp
 804a9b9:	ff b5 b8 5f ff ff    	pushl  -0xa048(%ebp)
 804a9bf:	e8 dc ea ff ff       	call   80494a0 <close@plt>
 804a9c4:	83 c4 10             	add    $0x10,%esp
 804a9c7:	b8 ff ff ff ff       	mov    $0xffffffff,%eax
 804a9cc:	e9 39 05 00 00       	jmp    804af0a <submitr+0x745>
 804a9d1:	83 ec 0c             	sub    $0xc,%esp
 804a9d4:	ff b5 94 5f ff ff    	pushl  -0xa06c(%ebp)
 804a9da:	e8 d1 e9 ff ff       	call   80493b0 <strlen@plt>
 804a9df:	83 c4 10             	add    $0x10,%esp
 804a9e2:	89 85 c0 5f ff ff    	mov    %eax,-0xa040(%ebp)
 804a9e8:	83 ec 0c             	sub    $0xc,%esp
 804a9eb:	ff b5 a0 5f ff ff    	pushl  -0xa060(%ebp)
 804a9f1:	e8 ba e9 ff ff       	call   80493b0 <strlen@plt>
 804a9f6:	83 c4 10             	add    $0x10,%esp
 804a9f9:	89 c6                	mov    %eax,%esi
 804a9fb:	83 ec 0c             	sub    $0xc,%esp
 804a9fe:	ff b5 9c 5f ff ff    	pushl  -0xa064(%ebp)
 804aa04:	e8 a7 e9 ff ff       	call   80493b0 <strlen@plt>
 804aa09:	83 c4 10             	add    $0x10,%esp
 804aa0c:	01 c6                	add    %eax,%esi
 804aa0e:	83 ec 0c             	sub    $0xc,%esp
 804aa11:	ff b5 98 5f ff ff    	pushl  -0xa068(%ebp)
 804aa17:	e8 94 e9 ff ff       	call   80493b0 <strlen@plt>
 804aa1c:	83 c4 10             	add    $0x10,%esp
 804aa1f:	8d 0c 06             	lea    (%esi,%eax,1),%ecx
 804aa22:	8b 95 c0 5f ff ff    	mov    -0xa040(%ebp),%edx
 804aa28:	89 d0                	mov    %edx,%eax
 804aa2a:	01 c0                	add    %eax,%eax
 804aa2c:	01 d0                	add    %edx,%eax
 804aa2e:	01 c8                	add    %ecx,%eax
 804aa30:	83 e8 80             	sub    $0xffffff80,%eax
 804aa33:	89 85 c4 5f ff ff    	mov    %eax,-0xa03c(%ebp)
 804aa39:	81 bd c4 5f ff ff 00 	cmpl   $0x2000,-0xa03c(%ebp)
 804aa40:	20 00 00 
 804aa43:	0f 86 82 00 00 00    	jbe    804aacb <submitr+0x306>
 804aa49:	8b 85 90 5f ff ff    	mov    -0xa070(%ebp),%eax
 804aa4f:	c7 00 45 72 72 6f    	movl   $0x6f727245,(%eax)
 804aa55:	c7 40 04 72 3a 20 52 	movl   $0x52203a72,0x4(%eax)
 804aa5c:	c7 40 08 65 73 75 6c 	movl   $0x6c757365,0x8(%eax)
 804aa63:	c7 40 0c 74 20 73 74 	movl   $0x74732074,0xc(%eax)
 804aa6a:	c7 40 10 72 69 6e 67 	movl   $0x676e6972,0x10(%eax)
 804aa71:	c7 40 14 20 74 6f 6f 	movl   $0x6f6f7420,0x14(%eax)
 804aa78:	c7 40 18 20 6c 61 72 	movl   $0x72616c20,0x18(%eax)
 804aa7f:	c7 40 1c 67 65 2e 20 	movl   $0x202e6567,0x1c(%eax)
 804aa86:	c7 40 20 49 6e 63 72 	movl   $0x72636e49,0x20(%eax)
 804aa8d:	c7 40 24 65 61 73 65 	movl   $0x65736165,0x24(%eax)
 804aa94:	c7 40 28 20 53 55 42 	movl   $0x42555320,0x28(%eax)
 804aa9b:	c7 40 2c 4d 49 54 52 	movl   $0x5254494d,0x2c(%eax)
 804aaa2:	c7 40 30 5f 4d 41 58 	movl   $0x58414d5f,0x30(%eax)
 804aaa9:	c7 40 34 42 55 46 00 	movl   $0x465542,0x34(%eax)
 804aab0:	83 ec 0c             	sub    $0xc,%esp
 804aab3:	ff b5 b8 5f ff ff    	pushl  -0xa048(%ebp)
 804aab9:	e8 e2 e9 ff ff       	call   80494a0 <close@plt>
 804aabe:	83 c4 10             	add    $0x10,%esp
 804aac1:	b8 ff ff ff ff       	mov    $0xffffffff,%eax
 804aac6:	e9 3f 04 00 00       	jmp    804af0a <submitr+0x745>
 804aacb:	8d 85 e4 9f ff ff    	lea    -0x601c(%ebp),%eax
 804aad1:	89 c6                	mov    %eax,%esi
 804aad3:	b8 00 00 00 00       	mov    $0x0,%eax
 804aad8:	ba 00 08 00 00       	mov    $0x800,%edx
 804aadd:	89 f7                	mov    %esi,%edi
 804aadf:	89 d1                	mov    %edx,%ecx
 804aae1:	f3 ab                	rep stos %eax,%es:(%edi)
 804aae3:	83 ec 08             	sub    $0x8,%esp
 804aae6:	8d 85 e4 9f ff ff    	lea    -0x601c(%ebp),%eax
 804aaec:	50                   	push   %eax
 804aaed:	ff b5 94 5f ff ff    	pushl  -0xa06c(%ebp)
 804aaf3:	e8 4e fb ff ff       	call   804a646 <urlencode>
 804aaf8:	83 c4 10             	add    $0x10,%esp
 804aafb:	85 c0                	test   %eax,%eax
 804aafd:	79 54                	jns    804ab53 <submitr+0x38e>
 804aaff:	8b 85 90 5f ff ff    	mov    -0xa070(%ebp),%eax
 804ab05:	89 c2                	mov    %eax,%edx
 804ab07:	8d 83 c0 e5 ff ff    	lea    -0x1a40(%ebx),%eax
 804ab0d:	b9 43 00 00 00       	mov    $0x43,%ecx
 804ab12:	8b 30                	mov    (%eax),%esi
 804ab14:	89 32                	mov    %esi,(%edx)
 804ab16:	8b 74 08 fc          	mov    -0x4(%eax,%ecx,1),%esi
 804ab1a:	89 74 0a fc          	mov    %esi,-0x4(%edx,%ecx,1)
 804ab1e:	8d 7a 04             	lea    0x4(%edx),%edi
 804ab21:	83 e7 fc             	and    $0xfffffffc,%edi
 804ab24:	29 fa                	sub    %edi,%edx
 804ab26:	29 d0                	sub    %edx,%eax
 804ab28:	01 d1                	add    %edx,%ecx
 804ab2a:	83 e1 fc             	and    $0xfffffffc,%ecx
 804ab2d:	c1 e9 02             	shr    $0x2,%ecx
 804ab30:	89 ca                	mov    %ecx,%edx
 804ab32:	89 c6                	mov    %eax,%esi
 804ab34:	89 d1                	mov    %edx,%ecx
 804ab36:	f3 a5                	rep movsl %ds:(%esi),%es:(%edi)
 804ab38:	83 ec 0c             	sub    $0xc,%esp
 804ab3b:	ff b5 b8 5f ff ff    	pushl  -0xa048(%ebp)
 804ab41:	e8 5a e9 ff ff       	call   80494a0 <close@plt>
 804ab46:	83 c4 10             	add    $0x10,%esp
 804ab49:	b8 ff ff ff ff       	mov    $0xffffffff,%eax
 804ab4e:	e9 b7 03 00 00       	jmp    804af0a <submitr+0x745>
 804ab53:	83 ec 08             	sub    $0x8,%esp
 804ab56:	8d 85 e4 9f ff ff    	lea    -0x601c(%ebp),%eax
 804ab5c:	50                   	push   %eax
 804ab5d:	ff b5 98 5f ff ff    	pushl  -0xa068(%ebp)
 804ab63:	ff b5 9c 5f ff ff    	pushl  -0xa064(%ebp)
 804ab69:	ff b5 a0 5f ff ff    	pushl  -0xa060(%ebp)
 804ab6f:	8d 83 04 e6 ff ff    	lea    -0x19fc(%ebx),%eax
 804ab75:	50                   	push   %eax
 804ab76:	8d 85 e4 7f ff ff    	lea    -0x801c(%ebp),%eax
 804ab7c:	50                   	push   %eax
 804ab7d:	e8 be e8 ff ff       	call   8049440 <sprintf@plt>
 804ab82:	83 c4 20             	add    $0x20,%esp
 804ab85:	83 ec 0c             	sub    $0xc,%esp
 804ab88:	8d 85 e4 7f ff ff    	lea    -0x801c(%ebp),%eax
 804ab8e:	50                   	push   %eax
 804ab8f:	e8 1c e8 ff ff       	call   80493b0 <strlen@plt>
 804ab94:	83 c4 10             	add    $0x10,%esp
 804ab97:	83 ec 04             	sub    $0x4,%esp
 804ab9a:	50                   	push   %eax
 804ab9b:	8d 85 e4 7f ff ff    	lea    -0x801c(%ebp),%eax
 804aba1:	50                   	push   %eax
 804aba2:	ff b5 b8 5f ff ff    	pushl  -0xa048(%ebp)
 804aba8:	e8 22 fa ff ff       	call   804a5cf <rio_writen>
 804abad:	83 c4 10             	add    $0x10,%esp
 804abb0:	85 c0                	test   %eax,%eax
 804abb2:	79 6d                	jns    804ac21 <submitr+0x45c>
 804abb4:	8b 85 90 5f ff ff    	mov    -0xa070(%ebp),%eax
 804abba:	c7 00 45 72 72 6f    	movl   $0x6f727245,(%eax)
 804abc0:	c7 40 04 72 3a 20 43 	movl   $0x43203a72,0x4(%eax)
 804abc7:	c7 40 08 6c 69 65 6e 	movl   $0x6e65696c,0x8(%eax)
 804abce:	c7 40 0c 74 20 75 6e 	movl   $0x6e752074,0xc(%eax)
 804abd5:	c7 40 10 61 62 6c 65 	movl   $0x656c6261,0x10(%eax)
 804abdc:	c7 40 14 20 74 6f 20 	movl   $0x206f7420,0x14(%eax)
 804abe3:	c7 40 18 77 72 69 74 	movl   $0x74697277,0x18(%eax)
 804abea:	c7 40 1c 65 20 74 6f 	movl   $0x6f742065,0x1c(%eax)
 804abf1:	c7 40 20 20 74 68 65 	movl   $0x65687420,0x20(%eax)
 804abf8:	c7 40 24 20 73 65 72 	movl   $0x72657320,0x24(%eax)
 804abff:	c7 40 28 76 65 72 00 	movl   $0x726576,0x28(%eax)
 804ac06:	83 ec 0c             	sub    $0xc,%esp
 804ac09:	ff b5 b8 5f ff ff    	pushl  -0xa048(%ebp)
 804ac0f:	e8 8c e8 ff ff       	call   80494a0 <close@plt>
 804ac14:	83 c4 10             	add    $0x10,%esp
 804ac17:	b8 ff ff ff ff       	mov    $0xffffffff,%eax
 804ac1c:	e9 e9 02 00 00       	jmp    804af0a <submitr+0x745>
 804ac21:	83 ec 08             	sub    $0x8,%esp
 804ac24:	ff b5 b8 5f ff ff    	pushl  -0xa048(%ebp)
 804ac2a:	8d 85 d8 5f ff ff    	lea    -0xa028(%ebp),%eax
 804ac30:	50                   	push   %eax
 804ac31:	e8 d6 f7 ff ff       	call   804a40c <rio_readinitb>
 804ac36:	83 c4 10             	add    $0x10,%esp
 804ac39:	83 ec 04             	sub    $0x4,%esp
 804ac3c:	68 00 20 00 00       	push   $0x2000
 804ac41:	8d 85 e4 7f ff ff    	lea    -0x801c(%ebp),%eax
 804ac47:	50                   	push   %eax
 804ac48:	8d 85 d8 5f ff ff    	lea    -0xa028(%ebp),%eax
 804ac4e:	50                   	push   %eax
 804ac4f:	e8 c6 f8 ff ff       	call   804a51a <rio_readlineb>
 804ac54:	83 c4 10             	add    $0x10,%esp
 804ac57:	85 c0                	test   %eax,%eax
 804ac59:	0f 8f 81 00 00 00    	jg     804ace0 <submitr+0x51b>
 804ac5f:	8b 85 90 5f ff ff    	mov    -0xa070(%ebp),%eax
 804ac65:	c7 00 45 72 72 6f    	movl   $0x6f727245,(%eax)
 804ac6b:	c7 40 04 72 3a 20 43 	movl   $0x43203a72,0x4(%eax)
 804ac72:	c7 40 08 6c 69 65 6e 	movl   $0x6e65696c,0x8(%eax)
 804ac79:	c7 40 0c 74 20 75 6e 	movl   $0x6e752074,0xc(%eax)
 804ac80:	c7 40 10 61 62 6c 65 	movl   $0x656c6261,0x10(%eax)
 804ac87:	c7 40 14 20 74 6f 20 	movl   $0x206f7420,0x14(%eax)
 804ac8e:	c7 40 18 72 65 61 64 	movl   $0x64616572,0x18(%eax)
 804ac95:	c7 40 1c 20 66 69 72 	movl   $0x72696620,0x1c(%eax)
 804ac9c:	c7 40 20 73 74 20 68 	movl   $0x68207473,0x20(%eax)
 804aca3:	c7 40 24 65 61 64 65 	movl   $0x65646165,0x24(%eax)
 804acaa:	c7 40 28 72 20 66 72 	movl   $0x72662072,0x28(%eax)
 804acb1:	c7 40 2c 6f 6d 20 73 	movl   $0x73206d6f,0x2c(%eax)
 804acb8:	c7 40 30 65 72 76 65 	movl   $0x65767265,0x30(%eax)
 804acbf:	66 c7 40 34 72 00    	movw   $0x72,0x34(%eax)
 804acc5:	83 ec 0c             	sub    $0xc,%esp
 804acc8:	ff b5 b8 5f ff ff    	pushl  -0xa048(%ebp)
 804acce:	e8 cd e7 ff ff       	call   80494a0 <close@plt>
 804acd3:	83 c4 10             	add    $0x10,%esp
 804acd6:	b8 ff ff ff ff       	mov    $0xffffffff,%eax
 804acdb:	e9 2a 02 00 00       	jmp    804af0a <submitr+0x745>
 804ace0:	83 ec 0c             	sub    $0xc,%esp
 804ace3:	8d 85 e4 df ff ff    	lea    -0x201c(%ebp),%eax
 804ace9:	50                   	push   %eax
 804acea:	8d 85 b4 5f ff ff    	lea    -0xa04c(%ebp),%eax
 804acf0:	50                   	push   %eax
 804acf1:	8d 85 e4 bf ff ff    	lea    -0x401c(%ebp),%eax
 804acf7:	50                   	push   %eax
 804acf8:	8d 83 4e e6 ff ff    	lea    -0x19b2(%ebx),%eax
 804acfe:	50                   	push   %eax
 804acff:	8d 85 e4 7f ff ff    	lea    -0x801c(%ebp),%eax
 804ad05:	50                   	push   %eax
 804ad06:	e8 e5 e6 ff ff       	call   80493f0 <__isoc99_sscanf@plt>
 804ad0b:	83 c4 20             	add    $0x20,%esp
 804ad0e:	8b 85 b4 5f ff ff    	mov    -0xa04c(%ebp),%eax
 804ad14:	3d c8 00 00 00       	cmp    $0xc8,%eax
 804ad19:	0f 84 d8 00 00 00    	je     804adf7 <submitr+0x632>
 804ad1f:	8b 85 b4 5f ff ff    	mov    -0xa04c(%ebp),%eax
 804ad25:	8d 95 e4 df ff ff    	lea    -0x201c(%ebp),%edx
 804ad2b:	52                   	push   %edx
 804ad2c:	50                   	push   %eax
 804ad2d:	8d 83 60 e6 ff ff    	lea    -0x19a0(%ebx),%eax
 804ad33:	50                   	push   %eax
 804ad34:	ff b5 90 5f ff ff    	pushl  -0xa070(%ebp)
 804ad3a:	e8 01 e7 ff ff       	call   8049440 <sprintf@plt>
 804ad3f:	83 c4 10             	add    $0x10,%esp
 804ad42:	83 ec 0c             	sub    $0xc,%esp
 804ad45:	ff b5 b8 5f ff ff    	pushl  -0xa048(%ebp)
 804ad4b:	e8 50 e7 ff ff       	call   80494a0 <close@plt>
 804ad50:	83 c4 10             	add    $0x10,%esp
 804ad53:	b8 ff ff ff ff       	mov    $0xffffffff,%eax
 804ad58:	e9 ad 01 00 00       	jmp    804af0a <submitr+0x745>
 804ad5d:	83 ec 04             	sub    $0x4,%esp
 804ad60:	68 00 20 00 00       	push   $0x2000
 804ad65:	8d 85 e4 7f ff ff    	lea    -0x801c(%ebp),%eax
 804ad6b:	50                   	push   %eax
 804ad6c:	8d 85 d8 5f ff ff    	lea    -0xa028(%ebp),%eax
 804ad72:	50                   	push   %eax
 804ad73:	e8 a2 f7 ff ff       	call   804a51a <rio_readlineb>
 804ad78:	83 c4 10             	add    $0x10,%esp
 804ad7b:	85 c0                	test   %eax,%eax
 804ad7d:	7f 78                	jg     804adf7 <submitr+0x632>
 804ad7f:	8b 85 90 5f ff ff    	mov    -0xa070(%ebp),%eax
 804ad85:	c7 00 45 72 72 6f    	movl   $0x6f727245,(%eax)
 804ad8b:	c7 40 04 72 3a 20 43 	movl   $0x43203a72,0x4(%eax)
 804ad92:	c7 40 08 6c 69 65 6e 	movl   $0x6e65696c,0x8(%eax)
 804ad99:	c7 40 0c 74 20 75 6e 	movl   $0x6e752074,0xc(%eax)
 804ada0:	c7 40 10 61 62 6c 65 	movl   $0x656c6261,0x10(%eax)
 804ada7:	c7 40 14 20 74 6f 20 	movl   $0x206f7420,0x14(%eax)
 804adae:	c7 40 18 72 65 61 64 	movl   $0x64616572,0x18(%eax)
 804adb5:	c7 40 1c 20 68 65 61 	movl   $0x61656820,0x1c(%eax)
 804adbc:	c7 40 20 64 65 72 73 	movl   $0x73726564,0x20(%eax)
 804adc3:	c7 40 24 20 66 72 6f 	movl   $0x6f726620,0x24(%eax)
 804adca:	c7 40 28 6d 20 73 65 	movl   $0x6573206d,0x28(%eax)
 804add1:	c7 40 2c 72 76 65 72 	movl   $0x72657672,0x2c(%eax)
 804add8:	c6 40 30 00          	movb   $0x0,0x30(%eax)
 804addc:	83 ec 0c             	sub    $0xc,%esp
 804addf:	ff b5 b8 5f ff ff    	pushl  -0xa048(%ebp)
 804ade5:	e8 b6 e6 ff ff       	call   80494a0 <close@plt>
 804adea:	83 c4 10             	add    $0x10,%esp
 804aded:	b8 ff ff ff ff       	mov    $0xffffffff,%eax
 804adf2:	e9 13 01 00 00       	jmp    804af0a <submitr+0x745>
 804adf7:	83 ec 08             	sub    $0x8,%esp
 804adfa:	8d 83 8d e6 ff ff    	lea    -0x1973(%ebx),%eax
 804ae00:	50                   	push   %eax
 804ae01:	8d 85 e4 7f ff ff    	lea    -0x801c(%ebp),%eax
 804ae07:	50                   	push   %eax
 804ae08:	e8 73 e4 ff ff       	call   8049280 <strcmp@plt>
 804ae0d:	83 c4 10             	add    $0x10,%esp
 804ae10:	85 c0                	test   %eax,%eax
 804ae12:	0f 85 45 ff ff ff    	jne    804ad5d <submitr+0x598>
 804ae18:	83 ec 04             	sub    $0x4,%esp
 804ae1b:	68 00 20 00 00       	push   $0x2000
 804ae20:	8d 85 e4 7f ff ff    	lea    -0x801c(%ebp),%eax
 804ae26:	50                   	push   %eax
 804ae27:	8d 85 d8 5f ff ff    	lea    -0xa028(%ebp),%eax
 804ae2d:	50                   	push   %eax
 804ae2e:	e8 e7 f6 ff ff       	call   804a51a <rio_readlineb>
 804ae33:	83 c4 10             	add    $0x10,%esp
 804ae36:	85 c0                	test   %eax,%eax
 804ae38:	7f 7f                	jg     804aeb9 <submitr+0x6f4>
 804ae3a:	8b 85 90 5f ff ff    	mov    -0xa070(%ebp),%eax
 804ae40:	c7 00 45 72 72 6f    	movl   $0x6f727245,(%eax)
 804ae46:	c7 40 04 72 3a 20 43 	movl   $0x43203a72,0x4(%eax)
 804ae4d:	c7 40 08 6c 69 65 6e 	movl   $0x6e65696c,0x8(%eax)
 804ae54:	c7 40 0c 74 20 75 6e 	movl   $0x6e752074,0xc(%eax)
 804ae5b:	c7 40 10 61 62 6c 65 	movl   $0x656c6261,0x10(%eax)
 804ae62:	c7 40 14 20 74 6f 20 	movl   $0x206f7420,0x14(%eax)
 804ae69:	c7 40 18 72 65 61 64 	movl   $0x64616572,0x18(%eax)
 804ae70:	c7 40 1c 20 73 74 61 	movl   $0x61747320,0x1c(%eax)
 804ae77:	c7 40 20 74 75 73 20 	movl   $0x20737574,0x20(%eax)
 804ae7e:	c7 40 24 6d 65 73 73 	movl   $0x7373656d,0x24(%eax)
 804ae85:	c7 40 28 61 67 65 20 	movl   $0x20656761,0x28(%eax)
 804ae8c:	c7 40 2c 66 72 6f 6d 	movl   $0x6d6f7266,0x2c(%eax)
 804ae93:	c7 40 30 20 73 65 72 	movl   $0x72657320,0x30(%eax)
 804ae9a:	c7 40 34 76 65 72 00 	movl   $0x726576,0x34(%eax)
 804aea1:	83 ec 0c             	sub    $0xc,%esp
 804aea4:	ff b5 b8 5f ff ff    	pushl  -0xa048(%ebp)
 804aeaa:	e8 f1 e5 ff ff       	call   80494a0 <close@plt>
 804aeaf:	83 c4 10             	add    $0x10,%esp
 804aeb2:	b8 ff ff ff ff       	mov    $0xffffffff,%eax
 804aeb7:	eb 51                	jmp    804af0a <submitr+0x745>
 804aeb9:	83 ec 08             	sub    $0x8,%esp
 804aebc:	8d 85 e4 7f ff ff    	lea    -0x801c(%ebp),%eax
 804aec2:	50                   	push   %eax
 804aec3:	ff b5 90 5f ff ff    	pushl  -0xa070(%ebp)
 804aec9:	e8 72 e4 ff ff       	call   8049340 <strcpy@plt>
 804aece:	83 c4 10             	add    $0x10,%esp
 804aed1:	83 ec 0c             	sub    $0xc,%esp
 804aed4:	ff b5 b8 5f ff ff    	pushl  -0xa048(%ebp)
 804aeda:	e8 c1 e5 ff ff       	call   80494a0 <close@plt>
 804aedf:	83 c4 10             	add    $0x10,%esp
 804aee2:	83 ec 08             	sub    $0x8,%esp
 804aee5:	8d 83 90 e6 ff ff    	lea    -0x1970(%ebx),%eax
 804aeeb:	50                   	push   %eax
 804aeec:	ff b5 90 5f ff ff    	pushl  -0xa070(%ebp)
 804aef2:	e8 89 e3 ff ff       	call   8049280 <strcmp@plt>
 804aef7:	83 c4 10             	add    $0x10,%esp
 804aefa:	85 c0                	test   %eax,%eax
 804aefc:	75 07                	jne    804af05 <submitr+0x740>
 804aefe:	b8 00 00 00 00       	mov    $0x0,%eax
 804af03:	eb 05                	jmp    804af0a <submitr+0x745>
 804af05:	b8 ff ff ff ff       	mov    $0xffffffff,%eax
 804af0a:	8b 7d e4             	mov    -0x1c(%ebp),%edi
 804af0d:	65 33 3d 14 00 00 00 	xor    %gs:0x14,%edi
 804af14:	74 05                	je     804af1b <submitr+0x756>
 804af16:	e8 65 04 00 00       	call   804b380 <__stack_chk_fail_local>
 804af1b:	8d 65 f4             	lea    -0xc(%ebp),%esp
 804af1e:	5b                   	pop    %ebx
 804af1f:	5e                   	pop    %esi
 804af20:	5f                   	pop    %edi
 804af21:	5d                   	pop    %ebp
 804af22:	c3                   	ret    

0804af23 <init_timeout>:
 804af23:	f3 0f 1e fb          	endbr32 
 804af27:	55                   	push   %ebp
 804af28:	89 e5                	mov    %esp,%ebp
 804af2a:	53                   	push   %ebx
 804af2b:	83 ec 04             	sub    $0x4,%esp
 804af2e:	e8 dd e5 ff ff       	call   8049510 <__x86.get_pc_thunk.bx>
 804af33:	81 c3 cd 30 00 00    	add    $0x30cd,%ebx
 804af39:	83 7d 08 00          	cmpl   $0x0,0x8(%ebp)
 804af3d:	74 32                	je     804af71 <init_timeout+0x4e>
 804af3f:	83 7d 08 00          	cmpl   $0x0,0x8(%ebp)
 804af43:	79 07                	jns    804af4c <init_timeout+0x29>
 804af45:	c7 45 08 02 00 00 00 	movl   $0x2,0x8(%ebp)
 804af4c:	83 ec 08             	sub    $0x8,%esp
 804af4f:	8d 83 d8 c3 ff ff    	lea    -0x3c28(%ebx),%eax
 804af55:	50                   	push   %eax
 804af56:	6a 0e                	push   $0xe
 804af58:	e8 93 e3 ff ff       	call   80492f0 <signal@plt>
 804af5d:	83 c4 10             	add    $0x10,%esp
 804af60:	8b 45 08             	mov    0x8(%ebp),%eax
 804af63:	83 ec 0c             	sub    $0xc,%esp
 804af66:	50                   	push   %eax
 804af67:	e8 94 e3 ff ff       	call   8049300 <alarm@plt>
 804af6c:	83 c4 10             	add    $0x10,%esp
 804af6f:	eb 01                	jmp    804af72 <init_timeout+0x4f>
 804af71:	90                   	nop
 804af72:	8b 5d fc             	mov    -0x4(%ebp),%ebx
 804af75:	c9                   	leave  
 804af76:	c3                   	ret    

0804af77 <init_driver>:
 804af77:	f3 0f 1e fb          	endbr32 
 804af7b:	55                   	push   %ebp
 804af7c:	89 e5                	mov    %esp,%ebp
 804af7e:	53                   	push   %ebx
 804af7f:	83 ec 44             	sub    $0x44,%esp
 804af82:	e8 89 e5 ff ff       	call   8049510 <__x86.get_pc_thunk.bx>
 804af87:	81 c3 79 30 00 00    	add    $0x3079,%ebx
 804af8d:	8b 45 08             	mov    0x8(%ebp),%eax
 804af90:	89 45 c4             	mov    %eax,-0x3c(%ebp)
 804af93:	65 a1 14 00 00 00    	mov    %gs:0x14,%eax
 804af99:	89 45 f4             	mov    %eax,-0xc(%ebp)
 804af9c:	31 c0                	xor    %eax,%eax
 804af9e:	8d 83 93 e6 ff ff    	lea    -0x196d(%ebx),%eax
 804afa4:	89 45 d4             	mov    %eax,-0x2c(%ebp)
 804afa7:	c7 45 d8 26 47 00 00 	movl   $0x4726,-0x28(%ebp)
 804afae:	83 ec 08             	sub    $0x8,%esp
 804afb1:	6a 01                	push   $0x1
 804afb3:	6a 0d                	push   $0xd
 804afb5:	e8 36 e3 ff ff       	call   80492f0 <signal@plt>
 804afba:	83 c4 10             	add    $0x10,%esp
 804afbd:	83 ec 08             	sub    $0x8,%esp
 804afc0:	6a 01                	push   $0x1
 804afc2:	6a 1d                	push   $0x1d
 804afc4:	e8 27 e3 ff ff       	call   80492f0 <signal@plt>
 804afc9:	83 c4 10             	add    $0x10,%esp
 804afcc:	83 ec 08             	sub    $0x8,%esp
 804afcf:	6a 01                	push   $0x1
 804afd1:	6a 1d                	push   $0x1d
 804afd3:	e8 18 e3 ff ff       	call   80492f0 <signal@plt>
 804afd8:	83 c4 10             	add    $0x10,%esp
 804afdb:	83 ec 04             	sub    $0x4,%esp
 804afde:	6a 00                	push   $0x0
 804afe0:	6a 01                	push   $0x1
 804afe2:	6a 02                	push   $0x2
 804afe4:	e8 67 e4 ff ff       	call   8049450 <socket@plt>
 804afe9:	83 c4 10             	add    $0x10,%esp
 804afec:	89 45 dc             	mov    %eax,-0x24(%ebp)
 804afef:	83 7d dc 00          	cmpl   $0x0,-0x24(%ebp)
 804aff3:	79 51                	jns    804b046 <init_driver+0xcf>
 804aff5:	8b 45 c4             	mov    -0x3c(%ebp),%eax
 804aff8:	c7 00 45 72 72 6f    	movl   $0x6f727245,(%eax)
 804affe:	c7 40 04 72 3a 20 43 	movl   $0x43203a72,0x4(%eax)
 804b005:	c7 40 08 6c 69 65 6e 	movl   $0x6e65696c,0x8(%eax)
 804b00c:	c7 40 0c 74 20 75 6e 	movl   $0x6e752074,0xc(%eax)
 804b013:	c7 40 10 61 62 6c 65 	movl   $0x656c6261,0x10(%eax)
 804b01a:	c7 40 14 20 74 6f 20 	movl   $0x206f7420,0x14(%eax)
 804b021:	c7 40 18 63 72 65 61 	movl   $0x61657263,0x18(%eax)
 804b028:	c7 40 1c 74 65 20 73 	movl   $0x73206574,0x1c(%eax)
 804b02f:	c7 40 20 6f 63 6b 65 	movl   $0x656b636f,0x20(%eax)
 804b036:	66 c7 40 24 74 00    	movw   $0x74,0x24(%eax)
 804b03c:	b8 ff ff ff ff       	mov    $0xffffffff,%eax
 804b041:	e9 09 01 00 00       	jmp    804b14f <init_driver+0x1d8>
 804b046:	83 ec 0c             	sub    $0xc,%esp
 804b049:	ff 75 d4             	pushl  -0x2c(%ebp)
 804b04c:	e8 2f e4 ff ff       	call   8049480 <gethostbyname@plt>
 804b051:	83 c4 10             	add    $0x10,%esp
 804b054:	89 45 e0             	mov    %eax,-0x20(%ebp)
 804b057:	83 7d e0 00          	cmpl   $0x0,-0x20(%ebp)
 804b05b:	75 30                	jne    804b08d <init_driver+0x116>
 804b05d:	83 ec 04             	sub    $0x4,%esp
 804b060:	ff 75 d4             	pushl  -0x2c(%ebp)
 804b063:	8d 83 6c e5 ff ff    	lea    -0x1a94(%ebx),%eax
 804b069:	50                   	push   %eax
 804b06a:	ff 75 c4             	pushl  -0x3c(%ebp)
 804b06d:	e8 ce e3 ff ff       	call   8049440 <sprintf@plt>
 804b072:	83 c4 10             	add    $0x10,%esp
 804b075:	83 ec 0c             	sub    $0xc,%esp
 804b078:	ff 75 dc             	pushl  -0x24(%ebp)
 804b07b:	e8 20 e4 ff ff       	call   80494a0 <close@plt>
 804b080:	83 c4 10             	add    $0x10,%esp
 804b083:	b8 ff ff ff ff       	mov    $0xffffffff,%eax
 804b088:	e9 c2 00 00 00       	jmp    804b14f <init_driver+0x1d8>
 804b08d:	8d 45 e4             	lea    -0x1c(%ebp),%eax
 804b090:	c7 00 00 00 00 00    	movl   $0x0,(%eax)
 804b096:	c7 40 04 00 00 00 00 	movl   $0x0,0x4(%eax)
 804b09d:	c7 40 08 00 00 00 00 	movl   $0x0,0x8(%eax)
 804b0a4:	c7 40 0c 00 00 00 00 	movl   $0x0,0xc(%eax)
 804b0ab:	66 c7 45 e4 02 00    	movw   $0x2,-0x1c(%ebp)
 804b0b1:	8b 45 e0             	mov    -0x20(%ebp),%eax
 804b0b4:	8b 40 0c             	mov    0xc(%eax),%eax
 804b0b7:	89 c2                	mov    %eax,%edx
 804b0b9:	8b 45 e0             	mov    -0x20(%ebp),%eax
 804b0bc:	8b 40 10             	mov    0x10(%eax),%eax
 804b0bf:	8b 00                	mov    (%eax),%eax
 804b0c1:	83 ec 04             	sub    $0x4,%esp
 804b0c4:	52                   	push   %edx
 804b0c5:	50                   	push   %eax
 804b0c6:	8d 45 e4             	lea    -0x1c(%ebp),%eax
 804b0c9:	83 c0 04             	add    $0x4,%eax
 804b0cc:	50                   	push   %eax
 804b0cd:	e8 ee e1 ff ff       	call   80492c0 <memmove@plt>
 804b0d2:	83 c4 10             	add    $0x10,%esp
 804b0d5:	8b 45 d8             	mov    -0x28(%ebp),%eax
 804b0d8:	0f b7 c0             	movzwl %ax,%eax
 804b0db:	83 ec 0c             	sub    $0xc,%esp
 804b0de:	50                   	push   %eax
 804b0df:	e8 3c e2 ff ff       	call   8049320 <htons@plt>
 804b0e4:	83 c4 10             	add    $0x10,%esp
 804b0e7:	66 89 45 e6          	mov    %ax,-0x1a(%ebp)
 804b0eb:	83 ec 04             	sub    $0x4,%esp
 804b0ee:	6a 10                	push   $0x10
 804b0f0:	8d 45 e4             	lea    -0x1c(%ebp),%eax
 804b0f3:	50                   	push   %eax
 804b0f4:	ff 75 dc             	pushl  -0x24(%ebp)
 804b0f7:	e8 94 e3 ff ff       	call   8049490 <connect@plt>
 804b0fc:	83 c4 10             	add    $0x10,%esp
 804b0ff:	85 c0                	test   %eax,%eax
 804b101:	79 2d                	jns    804b130 <init_driver+0x1b9>
 804b103:	ff 75 d8             	pushl  -0x28(%ebp)
 804b106:	ff 75 d4             	pushl  -0x2c(%ebp)
 804b109:	8d 83 a4 e6 ff ff    	lea    -0x195c(%ebx),%eax
 804b10f:	50                   	push   %eax
 804b110:	ff 75 c4             	pushl  -0x3c(%ebp)
 804b113:	e8 28 e3 ff ff       	call   8049440 <sprintf@plt>
 804b118:	83 c4 10             	add    $0x10,%esp
 804b11b:	83 ec 0c             	sub    $0xc,%esp
 804b11e:	ff 75 dc             	pushl  -0x24(%ebp)
 804b121:	e8 7a e3 ff ff       	call   80494a0 <close@plt>
 804b126:	83 c4 10             	add    $0x10,%esp
 804b129:	b8 ff ff ff ff       	mov    $0xffffffff,%eax
 804b12e:	eb 1f                	jmp    804b14f <init_driver+0x1d8>
 804b130:	83 ec 0c             	sub    $0xc,%esp
 804b133:	ff 75 dc             	pushl  -0x24(%ebp)
 804b136:	e8 65 e3 ff ff       	call   80494a0 <close@plt>
 804b13b:	83 c4 10             	add    $0x10,%esp
 804b13e:	8b 45 c4             	mov    -0x3c(%ebp),%eax
 804b141:	66 c7 00 4f 4b       	movw   $0x4b4f,(%eax)
 804b146:	c6 40 02 00          	movb   $0x0,0x2(%eax)
 804b14a:	b8 00 00 00 00       	mov    $0x0,%eax
 804b14f:	8b 4d f4             	mov    -0xc(%ebp),%ecx
 804b152:	65 33 0d 14 00 00 00 	xor    %gs:0x14,%ecx
 804b159:	74 05                	je     804b160 <init_driver+0x1e9>
 804b15b:	e8 20 02 00 00       	call   804b380 <__stack_chk_fail_local>
 804b160:	8b 5d fc             	mov    -0x4(%ebp),%ebx
 804b163:	c9                   	leave  
 804b164:	c3                   	ret    

0804b165 <driver_post>:
 804b165:	f3 0f 1e fb          	endbr32 
 804b169:	55                   	push   %ebp
 804b16a:	89 e5                	mov    %esp,%ebp
 804b16c:	53                   	push   %ebx
 804b16d:	83 ec 14             	sub    $0x14,%esp
 804b170:	e8 c6 ee ff ff       	call   804a03b <__x86.get_pc_thunk.ax>
 804b175:	05 8b 2e 00 00       	add    $0x2e8b,%eax
 804b17a:	83 7d 10 00          	cmpl   $0x0,0x10(%ebp)
 804b17e:	74 2a                	je     804b1aa <driver_post+0x45>
 804b180:	83 ec 08             	sub    $0x8,%esp
 804b183:	ff 75 0c             	pushl  0xc(%ebp)
 804b186:	8d 90 cd e6 ff ff    	lea    -0x1933(%eax),%edx
 804b18c:	52                   	push   %edx
 804b18d:	89 c3                	mov    %eax,%ebx
 804b18f:	e8 1c e1 ff ff       	call   80492b0 <printf@plt>
 804b194:	83 c4 10             	add    $0x10,%esp
 804b197:	8b 45 14             	mov    0x14(%ebp),%eax
 804b19a:	66 c7 00 4f 4b       	movw   $0x4b4f,(%eax)
 804b19f:	c6 40 02 00          	movb   $0x0,0x2(%eax)
 804b1a3:	b8 00 00 00 00       	mov    $0x0,%eax
 804b1a8:	eb 5a                	jmp    804b204 <driver_post+0x9f>
 804b1aa:	83 7d 08 00          	cmpl   $0x0,0x8(%ebp)
 804b1ae:	74 43                	je     804b1f3 <driver_post+0x8e>
 804b1b0:	8b 55 08             	mov    0x8(%ebp),%edx
 804b1b3:	0f b6 12             	movzbl (%edx),%edx
 804b1b6:	0f b6 d2             	movzbl %dl,%edx
 804b1b9:	85 d2                	test   %edx,%edx
 804b1bb:	74 36                	je     804b1f3 <driver_post+0x8e>
 804b1bd:	83 ec 04             	sub    $0x4,%esp
 804b1c0:	ff 75 14             	pushl  0x14(%ebp)
 804b1c3:	ff 75 0c             	pushl  0xc(%ebp)
 804b1c6:	8d 90 e4 e6 ff ff    	lea    -0x191c(%eax),%edx
 804b1cc:	52                   	push   %edx
 804b1cd:	ff 75 08             	pushl  0x8(%ebp)
 804b1d0:	8d 90 eb e6 ff ff    	lea    -0x1915(%eax),%edx
 804b1d6:	52                   	push   %edx
 804b1d7:	68 26 47 00 00       	push   $0x4726
 804b1dc:	8d 80 93 e6 ff ff    	lea    -0x196d(%eax),%eax
 804b1e2:	50                   	push   %eax
 804b1e3:	e8 dd f5 ff ff       	call   804a7c5 <submitr>
 804b1e8:	83 c4 20             	add    $0x20,%esp
 804b1eb:	89 45 f4             	mov    %eax,-0xc(%ebp)
 804b1ee:	8b 45 f4             	mov    -0xc(%ebp),%eax
 804b1f1:	eb 11                	jmp    804b204 <driver_post+0x9f>
 804b1f3:	8b 45 14             	mov    0x14(%ebp),%eax
 804b1f6:	66 c7 00 4f 4b       	movw   $0x4b4f,(%eax)
 804b1fb:	c6 40 02 00          	movb   $0x0,0x2(%eax)
 804b1ff:	b8 00 00 00 00       	mov    $0x0,%eax
 804b204:	8b 5d fc             	mov    -0x4(%ebp),%ebx
 804b207:	c9                   	leave  
 804b208:	c3                   	ret    

0804b209 <hash>:
 804b209:	f3 0f 1e fb          	endbr32 
 804b20d:	55                   	push   %ebp
 804b20e:	89 e5                	mov    %esp,%ebp
 804b210:	83 ec 10             	sub    $0x10,%esp
 804b213:	e8 23 ee ff ff       	call   804a03b <__x86.get_pc_thunk.ax>
 804b218:	05 e8 2d 00 00       	add    $0x2de8,%eax
 804b21d:	c7 45 fc 00 00 00 00 	movl   $0x0,-0x4(%ebp)
 804b224:	eb 1a                	jmp    804b240 <hash+0x37>
 804b226:	8b 45 fc             	mov    -0x4(%ebp),%eax
 804b229:	6b c8 67             	imul   $0x67,%eax,%ecx
 804b22c:	8b 45 08             	mov    0x8(%ebp),%eax
 804b22f:	8d 50 01             	lea    0x1(%eax),%edx
 804b232:	89 55 08             	mov    %edx,0x8(%ebp)
 804b235:	0f b6 00             	movzbl (%eax),%eax
 804b238:	0f be c0             	movsbl %al,%eax
 804b23b:	01 c8                	add    %ecx,%eax
 804b23d:	89 45 fc             	mov    %eax,-0x4(%ebp)
 804b240:	8b 45 08             	mov    0x8(%ebp),%eax
 804b243:	0f b6 00             	movzbl (%eax),%eax
 804b246:	84 c0                	test   %al,%al
 804b248:	75 dc                	jne    804b226 <hash+0x1d>
 804b24a:	8b 45 fc             	mov    -0x4(%ebp),%eax
 804b24d:	c9                   	leave  
 804b24e:	c3                   	ret    

0804b24f <check>:
 804b24f:	f3 0f 1e fb          	endbr32 
 804b253:	55                   	push   %ebp
 804b254:	89 e5                	mov    %esp,%ebp
 804b256:	83 ec 10             	sub    $0x10,%esp
 804b259:	e8 dd ed ff ff       	call   804a03b <__x86.get_pc_thunk.ax>
 804b25e:	05 a2 2d 00 00       	add    $0x2da2,%eax
 804b263:	8b 45 08             	mov    0x8(%ebp),%eax
 804b266:	c1 e8 1c             	shr    $0x1c,%eax
 804b269:	85 c0                	test   %eax,%eax
 804b26b:	75 07                	jne    804b274 <check+0x25>
 804b26d:	b8 00 00 00 00       	mov    $0x0,%eax
 804b272:	eb 33                	jmp    804b2a7 <check+0x58>
 804b274:	c7 45 fc 00 00 00 00 	movl   $0x0,-0x4(%ebp)
 804b27b:	eb 1f                	jmp    804b29c <check+0x4d>
 804b27d:	8b 45 fc             	mov    -0x4(%ebp),%eax
 804b280:	8b 55 08             	mov    0x8(%ebp),%edx
 804b283:	89 c1                	mov    %eax,%ecx
 804b285:	d3 ea                	shr    %cl,%edx
 804b287:	89 d0                	mov    %edx,%eax
 804b289:	0f b6 c0             	movzbl %al,%eax
 804b28c:	83 f8 0a             	cmp    $0xa,%eax
 804b28f:	75 07                	jne    804b298 <check+0x49>
 804b291:	b8 00 00 00 00       	mov    $0x0,%eax
 804b296:	eb 0f                	jmp    804b2a7 <check+0x58>
 804b298:	83 45 fc 08          	addl   $0x8,-0x4(%ebp)
 804b29c:	83 7d fc 1f          	cmpl   $0x1f,-0x4(%ebp)
 804b2a0:	7e db                	jle    804b27d <check+0x2e>
 804b2a2:	b8 01 00 00 00       	mov    $0x1,%eax
 804b2a7:	c9                   	leave  
 804b2a8:	c3                   	ret    

0804b2a9 <gencookie>:
 804b2a9:	f3 0f 1e fb          	endbr32 
 804b2ad:	55                   	push   %ebp
 804b2ae:	89 e5                	mov    %esp,%ebp
 804b2b0:	53                   	push   %ebx
 804b2b1:	83 ec 14             	sub    $0x14,%esp
 804b2b4:	e8 57 e2 ff ff       	call   8049510 <__x86.get_pc_thunk.bx>
 804b2b9:	81 c3 47 2d 00 00    	add    $0x2d47,%ebx
 804b2bf:	ff 75 08             	pushl  0x8(%ebp)
 804b2c2:	e8 42 ff ff ff       	call   804b209 <hash>
 804b2c7:	83 c4 04             	add    $0x4,%esp
 804b2ca:	83 ec 0c             	sub    $0xc,%esp
 804b2cd:	50                   	push   %eax
 804b2ce:	e8 bd e0 ff ff       	call   8049390 <srand@plt>
 804b2d3:	83 c4 10             	add    $0x10,%esp
 804b2d6:	e8 45 e1 ff ff       	call   8049420 <rand@plt>
 804b2db:	89 45 f4             	mov    %eax,-0xc(%ebp)
 804b2de:	83 ec 0c             	sub    $0xc,%esp
 804b2e1:	ff 75 f4             	pushl  -0xc(%ebp)
 804b2e4:	e8 66 ff ff ff       	call   804b24f <check>
 804b2e9:	83 c4 10             	add    $0x10,%esp
 804b2ec:	85 c0                	test   %eax,%eax
 804b2ee:	74 e6                	je     804b2d6 <gencookie+0x2d>
 804b2f0:	8b 45 f4             	mov    -0xc(%ebp),%eax
 804b2f3:	8b 5d fc             	mov    -0x4(%ebp),%ebx
 804b2f6:	c9                   	leave  
 804b2f7:	c3                   	ret    
 804b2f8:	66 90                	xchg   %ax,%ax
 804b2fa:	66 90                	xchg   %ax,%ax
 804b2fc:	66 90                	xchg   %ax,%ax
 804b2fe:	66 90                	xchg   %ax,%ax

0804b300 <__libc_csu_init>:
 804b300:	f3 0f 1e fb          	endbr32 
 804b304:	55                   	push   %ebp
 804b305:	e8 6b 00 00 00       	call   804b375 <__x86.get_pc_thunk.bp>
 804b30a:	81 c5 f6 2c 00 00    	add    $0x2cf6,%ebp
 804b310:	57                   	push   %edi
 804b311:	56                   	push   %esi
 804b312:	53                   	push   %ebx
 804b313:	83 ec 0c             	sub    $0xc,%esp
 804b316:	89 eb                	mov    %ebp,%ebx
 804b318:	8b 7c 24 28          	mov    0x28(%esp),%edi
 804b31c:	e8 df dc ff ff       	call   8049000 <_init>
 804b321:	8d 9d 04 ff ff ff    	lea    -0xfc(%ebp),%ebx
 804b327:	8d 85 00 ff ff ff    	lea    -0x100(%ebp),%eax
 804b32d:	29 c3                	sub    %eax,%ebx
 804b32f:	c1 fb 02             	sar    $0x2,%ebx
 804b332:	74 29                	je     804b35d <__libc_csu_init+0x5d>
 804b334:	31 f6                	xor    %esi,%esi
 804b336:	8d b4 26 00 00 00 00 	lea    0x0(%esi,%eiz,1),%esi
 804b33d:	8d 76 00             	lea    0x0(%esi),%esi
 804b340:	83 ec 04             	sub    $0x4,%esp
 804b343:	57                   	push   %edi
 804b344:	ff 74 24 2c          	pushl  0x2c(%esp)
 804b348:	ff 74 24 2c          	pushl  0x2c(%esp)
 804b34c:	ff 94 b5 00 ff ff ff 	call   *-0x100(%ebp,%esi,4)
 804b353:	83 c6 01             	add    $0x1,%esi
 804b356:	83 c4 10             	add    $0x10,%esp
 804b359:	39 f3                	cmp    %esi,%ebx
 804b35b:	75 e3                	jne    804b340 <__libc_csu_init+0x40>
 804b35d:	83 c4 0c             	add    $0xc,%esp
 804b360:	5b                   	pop    %ebx
 804b361:	5e                   	pop    %esi
 804b362:	5f                   	pop    %edi
 804b363:	5d                   	pop    %ebp
 804b364:	c3                   	ret    
 804b365:	8d b4 26 00 00 00 00 	lea    0x0(%esi,%eiz,1),%esi
 804b36c:	8d 74 26 00          	lea    0x0(%esi,%eiz,1),%esi

0804b370 <__libc_csu_fini>:
 804b370:	f3 0f 1e fb          	endbr32 
 804b374:	c3                   	ret    

0804b375 <__x86.get_pc_thunk.bp>:
 804b375:	8b 2c 24             	mov    (%esp),%ebp
 804b378:	c3                   	ret    
 804b379:	66 90                	xchg   %ax,%ax
 804b37b:	66 90                	xchg   %ax,%ax
 804b37d:	66 90                	xchg   %ax,%ax
 804b37f:	90                   	nop

0804b380 <__stack_chk_fail_local>:
 804b380:	f3 0f 1e fb          	endbr32 
 804b384:	53                   	push   %ebx
 804b385:	e8 86 e1 ff ff       	call   8049510 <__x86.get_pc_thunk.bx>
 804b38a:	81 c3 76 2c 00 00    	add    $0x2c76,%ebx
 804b390:	83 ec 08             	sub    $0x8,%esp
 804b393:	e8 78 df ff ff       	call   8049310 <__stack_chk_fail@plt>

Disassembly of section .fini:

0804b398 <_fini>:
 804b398:	f3 0f 1e fb          	endbr32 
 804b39c:	53                   	push   %ebx
 804b39d:	83 ec 08             	sub    $0x8,%esp
 804b3a0:	e8 6b e1 ff ff       	call   8049510 <__x86.get_pc_thunk.bx>
 804b3a5:	81 c3 5b 2c 00 00    	add    $0x2c5b,%ebx
 804b3ab:	83 c4 08             	add    $0x8,%esp
 804b3ae:	5b                   	pop    %ebx
 804b3af:	c3                   	ret    
